(dp1
S'output'
p2
S"<type 'exceptions.NameError'> name 'data' is not defined"
p3
sS'layer'
p4
S'F:\\ITWS III\\web2py_win viz\\web2py\\applications\\Weather_Final\\views\\default/find.html'
p5
sS'code'
p6
S'response.write(\'<html>\\r\\n    <meta name="viewport" content="width=device-width, initial-scale=1">\\r\\n    <link rel="stylesheet" href="http://www.w3schools.com/lib/w3.css">\\r\\n    <style>\\r\\n        div.a{\\r\\n             height:100px;\\r\\n        }\\r\\n       \\r\\n         div.find{\\r\\n            height:160px;\\r\\n            width:270px;\\r\\n            background:#ff5050;\\r\\n            font-family:"Comic Sans MS", cursive, sans-serif;\\r\\n            font-size:17px;\\r\\n        }\\r\\n        .imgWrap {\\r\\n  position: relative;\\r\\n\\r\\n}\\r\\n        #demo\\r\\n        {\\r\\n            color:white;\\r\\n        }\\r\\n\\r\\n.imgDescription {\\r\\n  position: absolute;\\r\\n  top: 0;\\r\\n  bottom: 0;\\r\\n  left: 0;\\r\\n  right: 0;\\r\\n  <!--background: rgba(29, 106, 154, 0.72);-->\\r\\n    background:#0033cc;\\r\\n color: white;\\r\\n\\r\\n\\r\\n  visibility: hidden;\\r\\n  opacity: 0;\\r\\n\\r\\n  /*remove comment if you want a gradual transition between states\\r\\n  -webkit-transition: visibility opacity 0.2s;\\r\\n  */\\r\\n}\\r\\n\\r\\n\\r\\n.imgWrap:hover .imgDescription {\\r\\n  visibility: visible;\\r\\n  opacity: 1;\\r\\n}\\r\\n        .w3-theme{\\r\\n            background-color:orange;\\r\\n        }\\r\\n        div.roll{\\r\\n            background-color: yellow;\\r\\n            font-size:15px;\\r\\n            color:red;\\r\\n        }\\r\\n        div.assg {\\r\\n            background-color: black;\\r\\n            color: white;\\r\\n            margin: 0px 0 0 0;\\r\\n            padding: 0px;\\r\\n        }\\r\\n        div.assd {\\r\\n            background-color: black;\\r\\n            float : left;\\r\\n            color: white;\\r\\n            margin: 0px 0 10px 0;\\r\\n            padding: 0px;\\r\\n            width: 140px;\\r\\n            height: 360px;\\r\\n        }\\r\\n        div.new {\\r\\n            margin: 0px 0 0px 0;\\r\\n            float : left;\\r\\n            <!--text-align:center;-->\\r\\n            font-size:15px;\\r\\n            color:black;\\r\\n            margin:0 0 0 0px;\\r\\n            width: 270px;\\r\\n            height: 650px;\\r\\n            background-color:#9999ff;\\r\\n        }\\r\\n        div.su{\\r\\n         height:80px;   \\r\\n        }\\r\\n        div.news {\\r\\n            margin: 0px 0 0px 0;\\r\\n            float : right;\\r\\n            text-align:center;\\r\\n            font-size:15px;\\r\\n            color:black;\\r\\n            margin:0 0 0 10px;\\r\\n            width: 270px;\\r\\n            height: 670px;\\r\\n        }\\r\\n        div.foot{\\r\\n            background-color:black;\\r\\n            text-align:center;\\r\\n            margin: 650px 0 0 0;\\r\\n        }\\r\\n        div.l{\\r\\n            float:right;\\r\\n        }\\r\\n        #head{\\r\\n            position: relative;\\r\\n            background-color:#73e600;\\r\\n            color:#800000;\\r\\n            margin: 0 0 0 0;\\r\\n            padding: 18px;\\r\\n          text-align:center;\\r\\n            font-size:30px;\\r\\n            font-style:italic;\\r\\n            text-shadow:1px 1px 4px black;\\r\\n        }\\r\\n        #head img\\r\\n        {\\r\\n            position: absolute;\\r\\n            top: 5px;\\r\\n          left: 15px;\\r\\n        }\\r\\n         #head img2\\r\\n        {\\r\\n            position: absolute;\\r\\n            top: 5px;\\r\\n          right: 15px;\\r\\n        }\\r\\n        \\r\\n        div.img1{\\r\\n             top: 5px;\\r\\n          left: 5px;\\r\\n            padding-left: 2cm;\\r\\n        }\\r\\n        div.img2{\\r\\n             top: 20px;\\r\\n          right:5px;\\r\\n            padding-left: 75%;\\r\\n        }\\r\\n        a:link {\\r\\n            color: green;\\r\\n            background-color: transparent;\\r\\n            text-decoration: none;\\r\\n        }\\r\\n        a:hover {\\r\\n            color: red;\\r\\n            background-color: transparent;\\r\\n            text-decoration: none;\\r\\n        }\\r\\n.dropbtn {\\r\\n    background-color: black;\\r\\n    color: white;\\r\\n    padding: 6px;\\r\\n    font-size: 14px;\\r\\n    border: none;\\r\\n    cursor: pointer;\\r\\n}\\r\\n\\r\\n.dropdown {\\r\\n    position: relative;\\r\\n    display: inline-block;\\r\\n}\\r\\n\\r\\n.dropdown-content {\\r\\n    display: none;\\r\\n    position: absolute;\\r\\n    background-color: #f9f9f9;\\r\\n    min-width: 85px;\\r\\n     box-shadow: 0px 4px 8px 0px rgba(0,0,0,0.2);\\r\\n}\\r\\n\\r\\n.dropdown-content a {\\r\\n    color: black;\\r\\n    padding: 6px 8px;\\r\\n    text-decoration: none;\\r\\n    display: block;\\r\\n}\\r\\n\\r\\n.dropdown-content a:hover {background-color: pink;}\\r\\n\\r\\n.dropdown:hover .dropdown-content {\\r\\n    display: block;\\r\\n}\\r\\n\\r\\n.dropdown:hover .dropbtn {\\r\\n    background-color: grey;\\r\\n}\\r\\n         .sidenav {\\r\\n    height: 100%;\\r\\n    width: 0;\\r\\n    position: fixed;\\r\\n    z-index: 1;\\r\\n    top: 0;\\r\\n    left: 0;\\r\\n    background-color: black;\\r\\n    overflow-x: hidden;\\r\\n    transition: 0.5s;\\r\\n    padding-top: 60px;\\r\\n    <!--text-align:center;-->\\r\\n}\\r\\n\\r\\n.sidenav a {\\r\\n    padding: 8px 8px 8px 32px;\\r\\n    text-decoration: none;\\r\\n    font-size: 25px;\\r\\n    color: red;\\r\\n    display: block;\\r\\n    transition: 0.3s\\r\\n\\r\\n}\\r\\n\\r\\n.sidenav a:hover{\\r\\n    color:red;\\r\\n}\\r\\n\\r\\n.sidenav .closebtn {\\r\\n    position: absolute;\\r\\n    top: 0;\\r\\n    right: 25px;\\r\\n    font-size: 36px;\\r\\n    margin-left: 50px;\\r\\n}\\r\\n\\r\\n#main {\\r\\n    transition: margin-left .5s;\\r\\n    padding: 16px;\\r\\n}\\r\\n\\r\\n\\r\\n\\r\\n\\r\\n@media screen and (max-height: 450px) {\\r\\n  .sidenav {padding-top: 15px;}\\r\\n  .sidenav a {font-size: 18px;}\\r\\n}\\r\\n\\r\\n        .modal {\\r\\n    display: none; /* Hidden by default */\\r\\n    position: fixed; /* Stay in place */\\r\\n    z-index: 1; /* Sit on top */\\r\\n    padding-top: 100px; /* Location of the box */\\r\\n    left: 0;\\r\\n    top: 0;\\r\\n    width: 100%; /* Full width */\\r\\n    height: 100%; /* Full height */\\r\\n    overflow: auto; /* Enable scroll if needed */\\r\\n    background-color: rgb(0,0,0); /* Fallback color */\\r\\n    background-color: rgba(0,0,0,0.4); /* Black w/ opacity */\\r\\n}\\r\\n\\r\\n/* Modal Content */\\r\\n.modal-content {\\r\\n    position: relative;\\r\\n    background-color: pink;\\r\\n    margin: auto;\\r\\n    padding: 0;\\r\\n    border: 1px solid #888;\\r\\n    width: 80%;\\r\\n    box-shadow: 0 4px 8px 0 rgba(0,0,0,0.2),0 6px 20px 0 rgba(0,0,0,0.19);\\r\\n    -webkit-animation-name: animatetop;\\r\\n    -webkit-animation-duration: 0.4s;\\r\\n    animation-name: animatetop;\\r\\n    animation-duration: 0.4s\\r\\n}\\r\\n\\r\\n/* Add Animation */\\r\\n@-webkit-keyframes animatetop {\\r\\n    from {top:-300px; opacity:0}\\r\\n    to {top:0; opacity:1}\\r\\n}\\r\\n\\r\\n@keyframes animatetop {\\r\\n    from {top:-300px; opacity:0}\\r\\n    to {top:0; opacity:1}\\r\\n}\\r\\n\\r\\n/* The Close Button */\\r\\n.close {\\r\\n    color: white;\\r\\n    float: right;\\r\\n    font-size: 28px;\\r\\n    font-weight: bold;\\r\\n}\\r\\n\\r\\n.close:hover,\\r\\n.close:focus {\\r\\n    color: #000;\\r\\n    text-decoration: none;\\r\\n    cursor: pointer;\\r\\n}\\r\\n\\r\\n.modal-header {\\r\\n    padding: 2px 16px;\\r\\n    background-color: #9933ff;\\r\\n    color: white;\\r\\n}\\r\\n\\r\\n.modal-body {\\r\\n    padding: 2px 16px;\\r\\n    background-color:#ffcc99;\\r\\n    color:black;\\r\\n}\\r\\n\\r\\n.modal-footer {\\r\\n    padding: 2px 16px;\\r\\n    background-color: #5cb85c;\\r\\n    color: white;\\r\\n}\\r\\n\\r\\n.mybtn{\\r\\n    background-color:black;\\r\\n    color:pink;\\r\\n}\\r\\n\\r\\n        /////////////\\r\\n\\r\\n    </style>\\r\\n    <body class="w3-theme">\\r\\n        <div class="assg">\\r\\n            <div id="head">\\r\\n                \\r\\n                   \\r\\n               <a href="http://127.0.0.1:8000/Aditya/default/index?">\\r\\n                <img  src="http://img.collegepravesh.com/2015/11/IIIT-Chittoor-Logo.jpg" alt="Aditya" width="75" height="60"></a>\\r\\n                       \\r\\n\\r\\n               Weather Station\\r\\n                                  <!--img class="img2" src="http://www.clipartpal.com/_thumbs/pd/weather/weather_vane.png" alt="Adi"  width="75" height="60"-->\\r\\n\\r\\n            </div>\\r\\n            <table>\\r\\n                <tr>\\r\\n                    <td>&nbsp</td>\\r\\n                </tr>\\r\\n                <tr>\\r\\n                    <td>\\r\\n                        <div class="w3-dropdown-hover">\\r\\n                            <form action="index">\\r\\n                                <button class="w3-btn w3-black">Home &nbsp&nbsp<img src="http://findicons.com/files/icons/1261/sticker_system/128/home.png" height="30" width="30"></button>\\r\\n                            </form>\\r\\n                        </div>\\r\\n                    </td>\\r\\n                    <td>\\r\\n                        <div class="w3-dropdown-hover" align="right">\\r\\n                            <form action="temperature" >\\r\\n                                <button class="w3-btn w3-black">Temperature</button>\\r\\n                            </form>\\r\\n                        </div>\\r\\n                    </td>\\r\\n                    <td>\\r\\n                        <div class="w3-dropdown-hover" align="right">\\r\\n                            <form action="pressure" >\\r\\n                                <button class="w3-btn w3-black">Pressure</button>\\r\\n                            </form>\\r\\n                        </div>\\r\\n                    </td>\\r\\n                    <td width="500">\\r\\n                        <div class="w3-dropdown-hover" align="right">\\r\\n                            <form action="humidity" >\\r\\n                                <button class="w3-btn w3-black">Humidity</button>\\r\\n                            </form>\\r\\n                        </div>\\r\\n                    </td>\\r\\n                    <td width="550">\\r\\n                         <button class="w3-btn w3-black">\\r\\n                        <script type="text/javascript">\\r\\ntday=new Array("Sunday","Monday","Tuesday","Wednesday","Thursday","Friday","Saturday");\\r\\ntmonth=new Array("January","February","March","April","May","June","July","August","September","October","November","December");\\r\\n\\r\\nfunction GetClock(){\\r\\nvar d=new Date();\\r\\nvar nday=d.getDay(),nmonth=d.getMonth(),ndate=d.getDate(),nyear=d.getYear();\\r\\nif(nyear<1000) nyear+=1900;\\r\\nvar nhour=d.getHours(),nmin=d.getMinutes(),nsec=d.getSeconds(),ap;\\r\\n\\r\\nif(nhour==0){ap=" AM";nhour=12;}\\r\\nelse if(nhour<12){ap=" AM";}\\r\\nelse if(nhour==12){ap=" PM";}\\r\\nelse if(nhour>12){ap=" PM";nhour-=12;}\\r\\n\\r\\nif(nmin<=9) nmin="0"+nmin;\\r\\nif(nsec<=9) nsec="0"+nsec;\\r\\n\\r\\ndocument.getElementById(\\\'clockbox\\\').innerHTML=""+tday[nday]+", "+tmonth[nmonth]+" "+ndate+", "+nyear+" "+nhour+":"+nmin+":"+nsec+ap+"";\\r\\n}\\r\\n\\r\\nwindow.onload=function(){\\r\\nGetClock();\\r\\nsetInterval(GetClock,1000);\\r\\n}\\r\\n</script>\\r\\n<div id="clockbox"></div>\\r\\n</button>\\r\\n                    </td>\\r\\n                    <td>\\r\\n                         <div class="w3-dropdown-hover" align="right">\\r\\n                            <form action="contactus" >\\r\\n                                <button class="w3-btn w3-black">Contact&nbsp Us</button>\\r\\n                            </form>\\r\\n                        </div>\\r\\n                    </td>\\r\\n                     <td>\\r\\n                         <div class="w3-dropdown-hover" align="right">\\r\\n                            <form action="aboutus" >\\r\\n                                <button class="w3-btn w3-black">About&nbsp Us</button>\\r\\n                            </form>\\r\\n                        </div>\\r\\n                    </td>\\r\\n                    <td>\\r\\n                        <div class="w3-dropdown-hover" align="right">\\r\\n                            <form action="signup args=" "" >\\r\\n                                <button class="w3-btn w3-black">SignUp</button>\\r\\n                            </form>\\r\\n                        </div>\\r\\n                    </td>\\r\\n                    \\r\\n                    <td width="5%">\\r\\n                        <div class="imgWrap">\\r\\n  <!--a href="http://www.facebook.com" target="_blank"-->\\r\\n                              <div class="w3-dropdown-hover" align="right">\\r\\n                            <form action="http://www.facebook.com" >\\r\\n                                <button class="w3-btn w3-black">\\r\\n                            <img src="https://www.facebook.com/images/fb_icon_325x325.png" alt="facebook" width="30" height="30"></button>\\r\\n                                </form>\\r\\n                        </div>\\r\\n                        </a>\\r\\n  <p class="imgDescription">Join us on Facebook</p>\\r\\n</div>\\r\\n                    </td>\\r\\n                    <td>&nbsp&nbsp&nbsp&nbsp&nbsp&nbsp</td>\\r\\n                    <td width="5%">\\r\\n                         <div class="imgWrap">\\r\\n  <!--a href="http://www.twitter.com" target="_blank"-->\\r\\n                              <div class="w3-dropdown-hover" align="right">\\r\\n                            <form action="http://www.twitter.com" >\\r\\n                                <button class="w3-btn w3-black">\\r\\n                            <img src="http://a2.mzstatic.com/us/r30/Purple49/v4/24/8b/56/248b56c7-143e-a01b-c6cd-9bb8a1641848/icon175x175.png" alt="twitter" width="30" height="30">\\r\\n                            </button>\\r\\n                                </form>\\r\\n                        </div>\\r\\n\\r\\n                        </a>\\r\\n                             <p class="imgDescription">Follow us on Twitter</p>\\r\\n</div>\\r\\n                        \\r\\n                    </td>\\r\\n                    \\r\\n                </tr>\\r\\n            </table>\\r\\n        </div>\\r\\n <div class="roll">\\r\\n            <marquee behavior="scroll" direction="left" onmouseover="this.stop();" onmouseout="this.start();"><font color="red">\\r\\n                <i>Place &nbsp : &nbsp Max &nbsp/ &nbsp Min Temp&nbsp,&nbsp&nbsp</i></font>\\r\\n                \', escape=False)\nfor i in read:\n    response.write(\'\\r\\n                <font color="blue">\', escape=False)\n    response.write(i.place)\n    response.write(\'</font>&nbsp :\\r\\n                <font color="green">\', escape=False)\n    response.write(i.high_temparature)\n    response.write(\'&nbsp / </font>\\r\\n                <font color="black">\', escape=False)\n    response.write(i.low_temparature)\n    response.write(\'&nbsp,&nbsp</font>\\r\\n                 \', escape=False)\n    pass\nresponse.write(\'\\r\\n                \\r\\n            </marquee>\\r\\n        </div>\\r\\n        <!--div class="assd">\\r\\n            <tr>\\r\\n                <form action="temperature">\\r\\n                    <button class="w3-btn w3-black">Temprature</button>\\r\\n                </form>\\r\\n            </tr>\\r\\n            <tr>\\r\\n                <form action="pressure">\\r\\n                    <button class="w3-btn w3-black">Pressure</button>\\r\\n                </form>\\r\\n            </tr>\\r\\n            <tr>\\r\\n                <form action="index">\\r\\n                    <button class="w3-btn w3-black">Humidity</button>\\r\\n                </form>\\r\\n            </tr>\\r\\n            <tr>\\r\\n                <form action="index">\\r\\n                    <button class="w3-btn w3-black">Rainfall</button>\\r\\n                </form>\\r\\n            </tr>\\r\\n            <tr>\\r\\n                <form action="index">\\r\\n                    <button class="w3-btn w3-black">Others</button>\\r\\n                </form>\\r\\n            </tr>\\r\\n            <tr>\\r\\n                <form action="index">\\r\\n                    <button class="w3-btn w3-black">Contact Us</button>\\r\\n                </form>\\r\\n            </tr>\\r\\n            <tr>\\r\\n                <form action="index">\\r\\n                    <button class="w3-btn w3-black">About Us</button>\\r\\n                </form>\\r\\n            </tr>\\r\\n        </div-->\\r\\n        <div class="new">\\r\\n<tr>\\r\\n<div id="mySidenav" class="sidenav">\\r\\n\\r\\n  <a href="javascript:void(0)" class="closebtn" onclick="closeNav()">&times;</a>\\r\\n  <center>\\r\\n  <button id="myBtn" class="mybtn">Chennai</button><br><br><br><br>\\r\\n  <button id="myBtn_1" class="mybtn">Vijayawada</button><br><br><br><br>\\r\\n  <button id="myBtn_2" class="mybtn">Amalapuram</button><br><br><br><br>\\r\\n  <button id="myBtn_3" class="mybtn">Guntur</button><br><br><br><br>\\r\\n  <button id="myBtn_4" class="mybtn">Vishakhaptnam</button>\\r\\n  </center>\\r\\n</div>\\r\\n\\r\\n\\r\\n<!--span style="font-size:30px;cursor:pointer;color:white" onclick="openNav()">&#9776; Places</span-->\\r\\n\\r\\n\\r\\n<div id="main">\\r\\n  <span style="font-size:20px;cursor:pointer" onclick="openNav()">&#x2630; Places</span>\\r\\n</div>\\r\\n\\r\\n\\r\\n<script>\\r\\nfunction openNav() {\\r\\n    document.getElementById("mySidenav").style.width = "285px";\\r\\n   // document.getElementById("main").style.marginLeft = "150px";\\r\\n}\\r\\n\\r\\nfunction closeNav() {\\r\\n    document.getElementById("mySidenav").style.width = "0";\\r\\n    //document.getElementById("main").style.marginLeft= "0";\\r\\n}\\r\\n</script>\\r\\n\\r\\n\\r\\n<div id="myModal" class="modal">\\r\\n\\r\\n  <!-- Modal content -->\\r\\n  <div class="modal-content">\\r\\n    <div class="modal-header">\\r\\n      <span class="close">\\xc3\\x97</span>\\r\\n      <h2>Weather Report</h2>\\r\\n    </div>\\r\\n    <div class="modal-body" >\\r\\n      <p>Temperature: 29.6\\xc2\\xb0C</p>\\r\\n      <p>Pressure: 1219 hPa</p>\\r\\n         <p>Humidity: 40%</p>\\r\\n    </div>\\r\\n  </div>\\r\\n    \\r\\n    \\r\\n    \\r\\n    \\r\\n    \\r\\n\\r\\n</div>\\r\\n<script>\\r\\n// Get the modal\\r\\nvar modal = document.getElementById(\\\'myModal\\\');\\r\\n\\r\\n// Get the button that opens the modal\\r\\nvar btn = document.getElementById("myBtn");\\r\\n\\r\\n// Get the <span> element that closes the modal\\r\\nvar span = document.getElementsByClassName("close")[0];\\r\\n\\r\\n// When the user clicks the button, open the modal\\r\\nbtn.onclick = function() {\\r\\n    modal.style.display = "block";\\r\\n}\\r\\n\\r\\n// When the user clicks on <span> (x), close the modal\\r\\nspan.onclick = function() {\\r\\n    modal.style.display = "none";\\r\\n}\\r\\n\\r\\n// When the user clicks anywhere outside of the modal, close it\\r\\nwindow.onclick = function(event) {\\r\\n    if (event.target == modal) {\\r\\n        modal.style.display = "none";\\r\\n    }\\r\\n}\\r\\n\\r\\n\\r\\n\\r\\n\\r\\n// Get the button that opens the modal\\r\\nvar btn = document.getElementById("myBtn_1");\\r\\n\\r\\n// Get the <span> element that closes the modal\\r\\nvar span = document.getElementsByClassName("close")[0];\\r\\n\\r\\n// When the user clicks the button, open the modal\\r\\nbtn.onclick = function() {\\r\\n    modal.style.display = "block";\\r\\n}\\r\\n\\r\\n// When the user clicks on <span> (x), close the modal\\r\\nspan.onclick = function() {\\r\\n    modal.style.display = "none";\\r\\n}\\r\\n\\r\\n// When the user clicks anywhere outside of the modal, close it\\r\\nwindow.onclick = function(event) {\\r\\n    if (event.target == modal) {\\r\\n        modal.style.display = "none";\\r\\n    }\\r\\n}\\r\\n\\r\\n\\r\\n\\r\\n// Get the button that opens the modal\\r\\nvar btn = document.getElementById("myBtn_2");\\r\\n\\r\\n// Get the <span> element that closes the modal\\r\\nvar span = document.getElementsByClassName("close")[0];\\r\\n\\r\\n// When the user clicks the button, open the modal\\r\\nbtn.onclick = function() {\\r\\n    modal.style.display = "block";\\r\\n}\\r\\n\\r\\n// When the user clicks on <span> (x), close the modal\\r\\nspan.onclick = function() {\\r\\n    modal.style.display = "none";\\r\\n}\\r\\n\\r\\n// When the user clicks anywhere outside of the modal, close it\\r\\nwindow.onclick = function(event) {\\r\\n    if (event.target == modal) {\\r\\n        modal.style.display = "none";\\r\\n    }\\r\\n}\\r\\n\\r\\n\\r\\n\\r\\n// Get the button that opens the modal\\r\\nvar btn = document.getElementById("myBtn_3");\\r\\n\\r\\n// Get the <span> element that closes the modal\\r\\nvar span = document.getElementsByClassName("close")[0];\\r\\n\\r\\n// When the user clicks the button, open the modal\\r\\nbtn.onclick = function() {\\r\\n    modal.style.display = "block";\\r\\n}\\r\\n\\r\\n// When the user clicks on <span> (x), close the modal\\r\\nspan.onclick = function() {\\r\\n    modal.style.display = "none";\\r\\n}\\r\\n\\r\\n// When the user clicks anywhere outside of the modal, close it\\r\\nwindow.onclick = function(event) {\\r\\n    if (event.target == modal) {\\r\\n        modal.style.display = "none";\\r\\n    }\\r\\n}\\r\\n\\r\\n\\r\\n\\r\\n// Get the button that opens the modal\\r\\nvar btn = document.getElementById("myBtn_4");\\r\\n\\r\\n// Get the <span> element that closes the modal\\r\\nvar span = document.getElementsByClassName("close")[0];\\r\\n`\\r\\n// When the user clicks the button, open the modal\\r\\nbtn.onclick = function() {\\r\\n    modal.style.display = "block";\\r\\n}\\r\\n\\r\\n// When the user clicks on <span> (x), close the modal\\r\\nspan.onclick = function() {\\r\\n    modal.style.display = "none";\\r\\n}\\r\\n\\r\\n// When the user clicks anywhere outside of the modal, close it\\r\\nwindow.onclick = function(event) {\\r\\n    if (event.target == modal) {\\r\\n        modal.style.display = "none";\\r\\n    }\\r\\n}\\r\\n</script>\\r\\n            </tr>\\r\\n            \\r\\n            \\r\\n            <font color="black" >\\r\\n                \\r\\n                <a href="imd_sensors" >  &nbsp&nbsp&nbsp&#9776;IMD SENSORS</a><br><br>\\r\\n                <a href="iiit_sensors" > &nbsp&nbsp&nbsp&#9776; IIIT SENSORS</a><br><br>\\r\\n                <a href="iiit_sensors" > &nbsp&nbsp&nbsp&#9776; IIIT SENSORS</a><br><br>\\r\\n                <a href="http://www.iiits.ac.in/" > &nbsp&nbsp&nbsp&#9776; IIIT CHITTOR</a><br>\\r\\n                </br></font>\\r\\n            \\r\\n            \\r\\n            \\r\\n           <br><br><br><br>\\r\\n            <div class="find"><center><br>\\r\\n            <form action="find">\\r\\n                Enter the city:<input type="text" name="place"></input>\\r\\n                <br><br>\\r\\n<button type="submit">\\r\\n    Submit\\r\\n</button>\\r\\n                </form></center></div>\\r\\n            \\r\\n        </div>\\r\\n        \\r\\n        \\r\\n      \\r\\n       \\r\\n        <div class="news" >\\r\\n             <div class="su">\\r\\n                 <br>\\r\\n                 <img src="http://www.metalvideos.net/Updates.gif" alt="Suma" height="50" width="170">\\r\\n</div>\\r\\n            <marquee bgcolor="#9999ff" scrollamount="2" direction="up" onmouseover="this.stop();" onmouseout="this.start();" loop="true" height="80%"> <center> <font color="black" ><strong>-Thunderstorms at Chennai<br><br>-The IMD plans to celebrate Environmental Day in association with UNESCO<br><br>-Heavy rains at Tirupati<br> <br>-Ms.Vagdevi inaugurates a sub-station of the IMD at the Nilgiri hills.\\r\\n                \\r\\n                <br><br><a href="http://www.iiits.ac.in/" >-IIIT CHITTOR</a> </br> </strong></font></center></marquee>\\r\\n        </div>\\r\\n    \\r\\n        <!--div class="news" >\\r\\n            <marquee bgcolor="#9999ff" scrollamount="2" direction="up" onmouseover="this.stop();" onmouseout="this.start();" loop="true" height="80%"> <center> <font color="black" ><strong>-Thunderstorms at Chennai<br><br>-The IMD plans to celebrate Environmental Day in association with UNESCO<br><br>-Heavy rains at Tirupati<br> <br>-Mr.Vagdevi inaugurates a sub-station of the IMD at the Nilgiri hills.<br><br>-IIT Madras </br> </strong></font></center></marquee>\\r\\n        </div-->\\r\\n\\r\\n<center>\\r\\n    <br>\\r\\n        <div class ="l" id="line_top_x" style="width:66%;height:650px">\\r\\n            \\r\\n                 <script type="text/javascript" src="https://d3js.org/d3.v3.min.js" ></script>\\r\\n    <script type="text/javascript">\\r\\n\\r\\n            \', escape=False)\nfrom gluon.serializers import json\nresponse.write(\'\\r\\n            var t = \', escape=False)\nresponse.write(XML(json(t)))\nresponse.write(\';\\r\\nvar p = \', escape=False)\nresponse.write(XML(json(p)))\nresponse.write(\';\\r\\n        var h = \', escape=False)\nresponse.write(XML(json(h)))\nresponse.write(\';\\r\\n       var s = \', escape=False)\nresponse.write(XML(json(s)))\nresponse.write(\';\\r\\n        var data = \', escape=False)\nresponse.write(XML(json(data)))\nresponse.write(\';\\r\\n        \\r\\n        \\r\\n    </script>\\r\\n            \\r\\n            \\r\\n            <script type="text/javascript" src="https://www.gstatic.com/charts/loader.js"></script>\\r\\n    <script type="text/javascript">\\r\\n      google.charts.load(\\\'current\\\', {\\\'packages\\\':[\\\'line\\\']});\\r\\n      google.charts.setOnLoadCallback(drawChart);\\r\\n    function drawChart() {\\r\\n\\r\\n      var data = new google.visualization.DataTable();\\r\\n       \\r\\n      data.addColumn(\\\'string\\\', \\\'Date\\\');\\r\\n      data.addColumn(\\\'number\\\', \\\'Temperature(in \\xc2\\xb0C)\\\');\\r\\n      data.addColumn(\\\'number\\\', \\\'Pressure(in 100hPa)\\\');\\r\\n      data.addColumn(\\\'number\\\', \\\'Humidity(in %)\\\');\\r\\n           var cnt=1\\r\\n        for (var i=0;i<4;i++)\\r\\n        {\\r\\n            if (cnt==4){\\r\\n        var t1=t[i];\\r\\n           var p1=p[i];\\r\\n               var h1=h[i];\\r\\n                var d1 = date[i];\\r\\n            }\\r\\n            if (cnt==3){\\r\\n       var t2=t[i];\\r\\n              var  p2=p[i];\\r\\n                  var h2=h[i];\\r\\n                var d2 = date[i];\\r\\n            }\\r\\n        if (cnt==2){\\r\\n       var t3=t[i];\\r\\n              var  p3=p[i];\\r\\n                var h3=h[i];\\r\\n            var d3 = date[i];\\r\\n            }\\r\\n        if (cnt==1){\\r\\n       var t4=t[i];\\r\\n              var  p4=p[i];\\r\\n                var h4=h[i];\\r\\n            var d4 = date[i];\\r\\n            }\\r\\n            cnt=cnt+1\\r\\n    }\\r\\n\\r\\n/*      data.addRows([\\r\\n        [\\\'28/10/16\\\',  t1,p1,h1],\\r\\n        [\\\'29/10/16\\\',  t2,p2,h2],\\r\\n        [\\\'30/10/16\\\',  t3,p3,h3],\\r\\n        [\\\'31/10/16\\\',  t4,p4,h4],\\r\\n      ]);*/\\r\\n//        date1=\', escape=False)\nresponse.write(date)\nresponse.write("\\r\\n        data.addRows([\\r\\n        [d1 ,  t1,p1,h1],\\r\\n        [d2 ,  t2,p2,h2],\\r\\n        [d3 ,  t3,p3,h3],\\r\\n        [d4 ,  t4,p4,h4],\\r\\n      ]);\\r\\n\\r\\n      var options = {\\r\\n        chart: {\\r\\n          title: \'Temperature,Pressure & Humidity of \' + s\\r\\n          \\r\\n        },\\r\\n        width: 600,\\r\\n        height: 500,\\r\\n        axes: {\\r\\n          x: {\\r\\n            0: {side: \'top\'}\\r\\n          }\\r\\n        }\\r\\n      };\\r\\n\\r\\n      var chart = new google.charts.Line(document.getElementById(\'line_top_x\'));\\r\\n\\r\\n      chart.draw(data, options);\\r\\n    }\\r\\n  </script>\\r\\n            ", escape=False)\nresponse.write(s)\nresponse.write(\'\\r\\n            \', escape=False)\nresponse.write(t)\nresponse.write(\'\\r\\n            \', escape=False)\nresponse.write(p)\nresponse.write(\'\\r\\n            \', escape=False)\nresponse.write(h)\nresponse.write(\'\\r\\n            \', escape=False)\nresponse.write(date)\nresponse.write(\'\\r\\n        </div>\\r\\n    </center>\\r\\n   <div class="foot">\\r\\n            <font color="white" size="4">\\r\\n                Copyrights@123\\r\\n            </font>\\r\\n        </div>\\r\\n     \\r\\n      </body>\\r\\n</html>\\r\\n\', escape=False)'
p7
sS'snapshot'
p8
(dp9
S'exception'
p10
(dp11
S'__hash__'
p12
S"<method-wrapper '__hash__' of exceptions.NameError object>"
p13
sS'__setattr__'
p14
S"<method-wrapper '__setattr__' of exceptions.NameError object>"
p15
sS'__reduce_ex__'
p16
S'<built-in method __reduce_ex__ of exceptions.NameError object>'
p17
sS'__getslice__'
p18
S"<method-wrapper '__getslice__' of exceptions.NameError object>"
p19
sS'__getitem__'
p20
S"<method-wrapper '__getitem__' of exceptions.NameError object>"
p21
sS'__setstate__'
p22
S'<built-in method __setstate__ of exceptions.NameError object>'
p23
sS'__reduce__'
p24
S'<built-in method __reduce__ of exceptions.NameError object>'
p25
sS'__str__'
p26
S"<method-wrapper '__str__' of exceptions.NameError object>"
p27
sS'__format__'
p28
S'<built-in method __format__ of exceptions.NameError object>'
p29
sS'__getattribute__'
p30
S"<method-wrapper '__getattribute__' of exceptions.NameError object>"
p31
sS'__class__'
p32
S"<type 'exceptions.NameError'>"
p33
sS'__unicode__'
p34
S'<built-in method __unicode__ of exceptions.NameError object>'
p35
sS'__delattr__'
p36
S"<method-wrapper '__delattr__' of exceptions.NameError object>"
p37
sS'__subclasshook__'
p38
S'<built-in method __subclasshook__ of type object>'
p39
sS'__repr__'
p40
S"<method-wrapper '__repr__' of exceptions.NameError object>"
p41
sS'args'
p42
S'("name \'data\' is not defined",)'
p43
sS'__dict__'
p44
S'{}'
p45
sS'__sizeof__'
p46
S'<built-in method __sizeof__ of exceptions.NameError object>'
p47
sS'__doc__'
p48
S"'Name not found globally.'"
p49
sS'__init__'
p50
S"<method-wrapper '__init__' of exceptions.NameError object>"
p51
sS'__new__'
p52
S'<built-in method __new__ of type object>'
p53
ssS'evalue'
p54
S"name 'data' is not defined"
p55
sS'request'
p56
cgluon.html
XML_unpickle
p57
(S's*d\x00\x00<div><table><tr><td style="font-weight:bold;vertical-align:top;">ajax</td><td style="vertical-align:top;">:</td><td><div>False</div></td></tr><tr><td style="font-weight:bold;vertical-align:top;">application</td><td style="vertical-align:top;">:</td><td><div>Weather_Final</div></td></tr><tr><td style="font-weight:bold;vertical-align:top;">args</td><td style="vertical-align:top;">:</td><td><div><table></table></div></td></tr><tr><td style="font-weight:bold;vertical-align:top;">cid</td><td style="vertical-align:top;">:</td><td><div>None</div></td></tr><tr><td style="font-weight:bold;vertical-align:top;">client</td><td style="vertical-align:top;">:</td><td><div>127.0.0.1</div></td></tr><tr><td style="font-weight:bold;vertical-align:top;">controller</td><td style="vertical-align:top;">:</td><td><div>default</div></td></tr><tr><td style="font-weight:bold;vertical-align:top;">cookies</td><td style="vertical-align:top;">:</td><td><div><table><tr><td style="font-weight:bold;vertical-align:top;">session_id_admin</td><td style="vertical-align:top;">:</td><td><div>127.0.0.1-b1f661d0-5719-4c2b-81bb-0faa0ac5cff9<table><tr><td style="font-weight:bold;vertical-align:top;">comment</td><td style="vertical-align:top;">:</td><td><div></div></td></tr><tr><td style="font-weight:bold;vertical-align:top;">domain</td><td style="vertical-align:top;">:</td><td><div></div></td></tr><tr><td style="font-weight:bold;vertical-align:top;">expires</td><td style="vertical-align:top;">:</td><td><div></div></td></tr><tr><td style="font-weight:bold;vertical-align:top;">httponly</td><td style="vertical-align:top;">:</td><td><div></div></td></tr><tr><td style="font-weight:bold;vertical-align:top;">max-age</td><td style="vertical-align:top;">:</td><td><div></div></td></tr><tr><td style="font-weight:bold;vertical-align:top;">path</td><td style="vertical-align:top;">:</td><td><div></div></td></tr><tr><td style="font-weight:bold;vertical-align:top;">secure</td><td style="vertical-align:top;">:</td><td><div></div></td></tr><tr><td style="font-weight:bold;vertical-align:top;">version</td><td style="vertical-align:top;">:</td><td><div></div></td></tr></table></div></td></tr><tr><td style="font-weight:bold;vertical-align:top;">session_id_weather_final</td><td style="vertical-align:top;">:</td><td><div>127.0.0.1-33989c96-3abd-498c-bdbb-926e41a23bda<table><tr><td style="font-weight:bold;vertical-align:top;">comment</td><td style="vertical-align:top;">:</td><td><div></div></td></tr><tr><td style="font-weight:bold;vertical-align:top;">domain</td><td style="vertical-align:top;">:</td><td><div></div></td></tr><tr><td style="font-weight:bold;vertical-align:top;">expires</td><td style="vertical-align:top;">:</td><td><div></div></td></tr><tr><td style="font-weight:bold;vertical-align:top;">httponly</td><td style="vertical-align:top;">:</td><td><div></div></td></tr><tr><td style="font-weight:bold;vertical-align:top;">max-age</td><td style="vertical-align:top;">:</td><td><div></div></td></tr><tr><td style="font-weight:bold;vertical-align:top;">path</td><td style="vertical-align:top;">:</td><td><div></div></td></tr><tr><td style="font-weight:bold;vertical-align:top;">secure</td><td style="vertical-align:top;">:</td><td><div></div></td></tr><tr><td style="font-weight:bold;vertical-align:top;">version</td><td style="vertical-align:top;">:</td><td><div></div></td></tr></table></div></td></tr><tr><td style="font-weight:bold;vertical-align:top;">session_id_weatherstation</td><td style="vertical-align:top;">:</td><td><div>127.0.0.1-2b0c39ea-6a93-473a-92fe-5813207186f2<table><tr><td style="font-weight:bold;vertical-align:top;">comment</td><td style="vertical-align:top;">:</td><td><div></div></td></tr><tr><td style="font-weight:bold;vertical-align:top;">domain</td><td style="vertical-align:top;">:</td><td><div></div></td></tr><tr><td style="font-weight:bold;vertical-align:top;">expires</td><td style="vertical-align:top;">:</td><td><div></div></td></tr><tr><td style="font-weight:bold;vertical-align:top;">httponly</td><td style="vertical-align:top;">:</td><td><div></div></td></tr><tr><td style="font-weight:bold;vertical-align:top;">max-age</td><td style="vertical-align:top;">:</td><td><div></div></td></tr><tr><td style="font-weight:bold;vertical-align:top;">path</td><td style="vertical-align:top;">:</td><td><div></div></td></tr><tr><td style="font-weight:bold;vertical-align:top;">secure</td><td style="vertical-align:top;">:</td><td><div></div></td></tr><tr><td style="font-weight:bold;vertical-align:top;">version</td><td style="vertical-align:top;">:</td><td><div></div></td></tr></table></div></td></tr><tr><td style="font-weight:bold;vertical-align:top;">session_id_welcome</td><td style="vertical-align:top;">:</td><td><div>127.0.0.1-5316d3a3-d9e0-4337-814c-68b9ed688872<table><tr><td style="font-weight:bold;vertical-align:top;">comment</td><td style="vertical-align:top;">:</td><td><div></div></td></tr><tr><td style="font-weight:bold;vertical-align:top;">domain</td><td style="vertical-align:top;">:</td><td><div></div></td></tr><tr><td style="font-weight:bold;vertical-align:top;">expires</td><td style="vertical-align:top;">:</td><td><div></div></td></tr><tr><td style="font-weight:bold;vertical-align:top;">httponly</td><td style="vertical-align:top;">:</td><td><div></div></td></tr><tr><td style="font-weight:bold;vertical-align:top;">max-age</td><td style="vertical-align:top;">:</td><td><div></div></td></tr><tr><td style="font-weight:bold;vertical-align:top;">path</td><td style="vertical-align:top;">:</td><td><div></div></td></tr><tr><td style="font-weight:bold;vertical-align:top;">secure</td><td style="vertical-align:top;">:</td><td><div></div></td></tr><tr><td style="font-weight:bold;vertical-align:top;">version</td><td style="vertical-align:top;">:</td><td><div></div></td></tr></table></div></td></tr></table></div></td></tr><tr><td style="font-weight:bold;vertical-align:top;">env</td><td style="vertical-align:top;">:</td><td><div><table><tr><td style="font-weight:bold;vertical-align:top;">HTTP_ACCEPT</td><td style="vertical-align:top;">:</td><td><div>text/html, application/xhtml+xml, image/jxr, */*</div></td></tr><tr><td style="font-weight:bold;vertical-align:top;">HTTP_ACCEPT_ENCODING</td><td style="vertical-align:top;">:</td><td><div>gzip, deflate</div></td></tr><tr><td style="font-weight:bold;vertical-align:top;">HTTP_ACCEPT_LANGUAGE</td><td style="vertical-align:top;">:</td><td><div>en-IN</div></td></tr><tr><td style="font-weight:bold;vertical-align:top;">HTTP_CONNECTION</td><td style="vertical-align:top;">:</td><td><div>Keep-Alive</div></td></tr><tr><td style="font-weight:bold;vertical-align:top;">HTTP_COOKIE</td><td style="vertical-align:top;">:</td><td><div>session_id_welcome=127.0.0.1-5316d3a3-d9e0-4337-814c-68b9ed688872; session_id_admin=127.0.0.1-b1f661d0-5719-4c2b-81bb-0faa0ac5cff9; session_id_weather_final=127.0.0.1-33989c96-3abd-498c-bdbb-926e41a23bda; session_id_weatherstation=127.0.0.1-2b0c39ea-6a93-473a-92fe-5813207186f2</div></td></tr><tr><td style="font-weight:bold;vertical-align:top;">HTTP_HOST</td><td style="vertical-align:top;">:</td><td><div>127.0.0.1:8000</div></td></tr><tr><td style="font-weight:bold;vertical-align:top;">HTTP_REFERER</td><td style="vertical-align:top;">:</td><td><div>http://127.0.0.1:8000/Weather_Final/default/index</div></td></tr><tr><td style="font-weight:bold;vertical-align:top;">HTTP_USER_AGENT</td><td style="vertical-align:top;">:</td><td><div>Mozilla/5.0 (Windows NT 10.0; Win64; x64) AppleWebKit/537.36 (KHTML, like Gecko) Chrome/51.0.2704.79 Safari/537.36 Edge/14.14393</div></td></tr><tr><td style="font-weight:bold;vertical-align:top;">PATH_INFO</td><td style="vertical-align:top;">:</td><td><div>/Weather_Final/default/find</div></td></tr><tr><td style="font-weight:bold;vertical-align:top;">QUERY_STRING</td><td style="vertical-align:top;">:</td><td><div>place=Chennai</div></td></tr><tr><td style="font-weight:bold;vertical-align:top;">REMOTE_ADDR</td><td style="vertical-align:top;">:</td><td><div>127.0.0.1</div></td></tr><tr><td style="font-weight:bold;vertical-align:top;">REMOTE_PORT</td><td style="vertical-align:top;">:</td><td><div>49964</div></td></tr><tr><td style="font-weight:bold;vertical-align:top;">REQUEST_METHOD</td><td style="vertical-align:top;">:</td><td><div>GET</div></td></tr><tr><td style="font-weight:bold;vertical-align:top;">SCRIPT_NAME</td><td style="vertical-align:top;">:</td><td><div></div></td></tr><tr><td style="font-weight:bold;vertical-align:top;">SERVER_NAME</td><td style="vertical-align:top;">:</td><td><div>LAPTOP-GNQ9QB8U</div></td></tr><tr><td style="font-weight:bold;vertical-align:top;">SERVER_PORT</td><td style="vertical-align:top;">:</td><td><div>8000</div></td></tr><tr><td style="font-weight:bold;vertical-align:top;">SERVER_PROTOCOL</td><td style="vertical-align:top;">:</td><td><div>HTTP/1.1</div></td></tr><tr><td style="font-weight:bold;vertical-align:top;">SERVER_SOFTWARE</td><td style="vertical-align:top;">:</td><td><div>Rocket 1.2.6</div></td></tr><tr><td style="font-weight:bold;vertical-align:top;">app_folders</td><td style="vertical-align:top;">:</td><td><div>set([&#x27;F:\\\\ITWS III\\\\web2py_win viz\\\\web2py\\\\applications\\\\welcome\\\\&#x27;, &#x27;F:\\\\ITWS III\\\\web2py_win viz\\\\web2py\\\\applications\\\\Weatherstation\\\\&#x27;, &#x27;F:\\\\ITWS III\\\\web2py_win viz\\\\web2py\\\\applications\\\\admin\\\\&#x27;, &#x27;F:\\\\ITWS III\\\\web2py_win viz\\\\web2py\\\\applications\\\\Weather_Final\\\\&#x27;])</div></td></tr><tr><td style="font-weight:bold;vertical-align:top;">applications_parent</td><td style="vertical-align:top;">:</td><td><div>F:\\ITWS III\\web2py_win viz\\web2py</div></td></tr><tr><td style="font-weight:bold;vertical-align:top;">cmd_args</td><td style="vertical-align:top;">:</td><td><div><table></table></div></td></tr><tr><td style="font-weight:bold;vertical-align:top;">cmd_options</td><td style="vertical-align:top;">:</td><td><div>&lt;Values at 0x1c31530: {&#x27;verbose&#x27;: False, &#x27;ip&#x27;: &#x27;127.0.0.1&#x27;, &#x27;debuglevel&#x27;: 30, &#x27;with_scheduler&#x27;: False, &#x27;ips&#x27;: [&#x27;192.168.1.247&#x27;, &#x27;fe80::2cba:2b19:8f7a:3bfd%7&#x27;, &#x27;fe80::50d1:6179:f3fe:1e93%18&#x27;, &#x27;2001:0:9d38:6abd:2cba:2b19:8f7a:3bfd&#x27;], &#x27;shutdown_timeout&#x27;: 5, &#x27;taskbar&#x27;: False, &#x27;with_coverage&#x27;: False, &#x27;scheduler_groups&#x27;: None, &#x27;port&#x27;: 8000, &#x27;maxthreads&#x27;: None, &#x27;softcron&#x27;: False, &#x27;server_name&#x27;: &#x27;LAPTOP-GNQ9QB8U&#x27;, &#x27;bpython&#x27;: False, &#x27;nogui&#x27;: False, &#x27;pid_filename&#x27;: &#x27;httpserver.pid&#x27;, &#x27;print_errors&#x27;: False, &#x27;extcron&#x27;: False, &#x27;runcron&#x27;: False, &#x27;run_system_tests&#x27;: False, &#x27;test&#x27;: None, &#x27;folder&#x27;: &#x27;F:\\\\ITWS III\\\\web2py_win viz\\\\web2py&#x27;, &#x27;config&#x27;: &#x27;&#x27;, &#x27;minthreads&#x27;: None, &#x27;shell&#x27;: None, &#x27;run&#x27;: &#x27;&#x27;, &#x27;log_filename&#x27;: &#x27;httpserver.log&#x27;, &#x27;profiler_dir&#x27;: None, &#x27;args&#x27;: [&#x27;&#x27;], &#x27;socket_timeout&#x27;: 5, &#x27;ssl_ca_certificate&#x27;: None, &#x27;scheduler&#x27;: None, &#x27;interfaces&#x27;: None, &#x27;ssl_private_key&#x27;: &#x27;&#x27;, &#x27;gae&#x27;: None, &#x27;password&#x27;: &#x27;&lt;ask&gt;&#x27;, &#x27;request_queue_size&#x27;: 5, &#x27;ssl_certificate&#x27;: &#x27;&#x27;, &#x27;cronjob&#x27;: False, &#x27;numthreads&#x27;: None, &#x27;quiet&#x27;: False, &#x27;import_models&#x27;: False, &#x27;timeout&#x27;: 10, &#x27;plain&#x27;: False, &#x27;nobanner&#x27;: False}&gt;</div></td></tr><tr><td style="font-weight:bold;vertical-align:top;">db_sessions</td><td style="vertical-align:top;">:</td><td><div>set([])</div></td></tr><tr><td style="font-weight:bold;vertical-align:top;">debugging</td><td style="vertical-align:top;">:</td><td><div>True</div></td></tr><tr><td style="font-weight:bold;vertical-align:top;">gluon_parent</td><td style="vertical-align:top;">:</td><td><div>F:\\ITWS III\\web2py_win viz\\web2py</div></td></tr><tr><td style="font-weight:bold;vertical-align:top;">http_accept</td><td style="vertical-align:top;">:</td><td><div>text/html, application/xhtml+xml, image/jxr, */*</div></td></tr><tr><td style="font-weight:bold;vertical-align:top;">http_accept_encoding</td><td style="vertical-align:top;">:</td><td><div>gzip, deflate</div></td></tr><tr><td style="font-weight:bold;vertical-align:top;">http_accept_language</td><td style="vertical-align:top;">:</td><td><div>en-IN</div></td></tr><tr><td style="font-weight:bold;vertical-align:top;">http_connection</td><td style="vertical-align:top;">:</td><td><div>Keep-Alive</div></td></tr><tr><td style="font-weight:bold;vertical-align:top;">http_cookie</td><td style="vertical-align:top;">:</td><td><div>session_id_welcome=127.0.0.1-5316d3a3-d9e0-4337-814c-68b9ed688872; session_id_admin=127.0.0.1-b1f661d0-5719-4c2b-81bb-0faa0ac5cff9; session_id_weather_final=127.0.0.1-33989c96-3abd-498c-bdbb-926e41a23bda; session_id_weatherstation=127.0.0.1-2b0c39ea-6a93-473a-92fe-5813207186f2</div></td></tr><tr><td style="font-weight:bold;vertical-align:top;">http_host</td><td style="vertical-align:top;">:</td><td><div>127.0.0.1:8000</div></td></tr><tr><td style="font-weight:bold;vertical-align:top;">http_referer</td><td style="vertical-align:top;">:</td><td><div>http://127.0.0.1:8000/Weather_Final/default/index</div></td></tr><tr><td style="font-weight:bold;vertical-align:top;">http_user_agent</td><td style="vertical-align:top;">:</td><td><div>Mozilla/5.0 (Windows NT 10.0; Win64; x64) AppleWebKit/537.36 (KHTML, like Gecko) Chrome/51.0.2704.79 Safari/537.36 Edge/14.14393</div></td></tr><tr><td style="font-weight:bold;vertical-align:top;">is_jython</td><td style="vertical-align:top;">:</td><td><div>False</div></td></tr><tr><td style="font-weight:bold;vertical-align:top;">is_pypy</td><td style="vertical-align:top;">:</td><td><div>False</div></td></tr><tr><td style="font-weight:bold;vertical-align:top;">is_source</td><td style="vertical-align:top;">:</td><td><div>False</div></td></tr><tr><td style="font-weight:bold;vertical-align:top;">local_hosts</td><td style="vertical-align:top;">:</td><td><div><table><tr><td><div>fe80::2cba:2b19:8f7a:3bfd%7</div></td></tr><tr><td><div>::ffff:127.0.0.1</div></td></tr><tr><td><div>::1</div></td></tr><tr><td><div>LAPTOP-GNQ9QB8U</div></td></tr><tr><td><div>192.168.1.247</div></td></tr><tr><td><div>fe80::50d1:6179:f3fe:1e93%18</div></td></tr><tr><td><div>2001:0:9d38:6abd:2cba:2b19:8f7a:3bfd</div></td></tr><tr><td><div>127.0.0.1</div></td></tr></table></div></td></tr><tr><td style="font-weight:bold;vertical-align:top;">path_info</td><td style="vertical-align:top;">:</td><td><div>/Weather_Final/default/find</div></td></tr><tr><td style="font-weight:bold;vertical-align:top;">query_string</td><td style="vertical-align:top;">:</td><td><div>place=Chennai</div></td></tr><tr><td style="font-weight:bold;vertical-align:top;">remote_addr</td><td style="vertical-align:top;">:</td><td><div>127.0.0.1</div></td></tr><tr><td style="font-weight:bold;vertical-align:top;">remote_port</td><td style="vertical-align:top;">:</td><td><div>49964</div></td></tr><tr><td style="font-weight:bold;vertical-align:top;">request_method</td><td style="vertical-align:top;">:</td><td><div>GET</div></td></tr><tr><td style="font-weight:bold;vertical-align:top;">request_uri</td><td style="vertical-align:top;">:</td><td><div>/Weather_Final/default/find?place=Chennai</div></td></tr><tr><td style="font-weight:bold;vertical-align:top;">script_name</td><td style="vertical-align:top;">:</td><td><div></div></td></tr><tr><td style="font-weight:bold;vertical-align:top;">server_name</td><td style="vertical-align:top;">:</td><td><div>LAPTOP-GNQ9QB8U</div></td></tr><tr><td style="font-weight:bold;vertical-align:top;">server_port</td><td style="vertical-align:top;">:</td><td><div>8000</div></td></tr><tr><td style="font-weight:bold;vertical-align:top;">server_protocol</td><td style="vertical-align:top;">:</td><td><div>HTTP/1.1</div></td></tr><tr><td style="font-weight:bold;vertical-align:top;">server_software</td><td style="vertical-align:top;">:</td><td><div>Rocket 1.2.6</div></td></tr><tr><td style="font-weight:bold;vertical-align:top;">web2py_path</td><td style="vertical-align:top;">:</td><td><div>F:\\ITWS III\\web2py_win viz\\web2py</div></td></tr><tr><td style="font-weight:bold;vertical-align:top;">web2py_version</td><td style="vertical-align:top;">:</td><td><div>2.12.3-stable+timestamp.2015.08.19.00.18.03</div></td></tr><tr><td style="font-weight:bold;vertical-align:top;">wsgi.errors</td><td style="vertical-align:top;">:</td><td><div>&lt;open file &#x27;&lt;stderr&gt;&#x27;, mode &#x27;w&#x27; at 0x00E7D0D0&gt;</div></td></tr><tr><td style="font-weight:bold;vertical-align:top;">wsgi.file_wrapper</td><td style="vertical-align:top;">:</td><td><div>&lt;class wsgiref.util.FileWrapper at 0x01E29B20&gt;</div></td></tr><tr><td style="font-weight:bold;vertical-align:top;">wsgi.input</td><td style="vertical-align:top;">:</td><td><div>&lt;socket._fileobject object at 0x048221F0&gt;</div></td></tr><tr><td style="font-weight:bold;vertical-align:top;">wsgi.multiprocess</td><td style="vertical-align:top;">:</td><td><div>False</div></td></tr><tr><td style="font-weight:bold;vertical-align:top;">wsgi.multithread</td><td style="vertical-align:top;">:</td><td><div>True</div></td></tr><tr><td style="font-weight:bold;vertical-align:top;">wsgi.run_once</td><td style="vertical-align:top;">:</td><td><div>False</div></td></tr><tr><td style="font-weight:bold;vertical-align:top;">wsgi.url_scheme</td><td style="vertical-align:top;">:</td><td><div>http</div></td></tr><tr><td style="font-weight:bold;vertical-align:top;">wsgi.version</td><td style="vertical-align:top;">:</td><td><div><table><tr><td><div>1</div></td></tr><tr><td><div>0</div></td></tr></table></div></td></tr><tr><td style="font-weight:bold;vertical-align:top;">wsgi_errors</td><td style="vertical-align:top;">:</td><td><div>&lt;open file &#x27;&lt;stderr&gt;&#x27;, mode &#x27;w&#x27; at 0x00E7D0D0&gt;</div></td></tr><tr><td style="font-weight:bold;vertical-align:top;">wsgi_file_wrapper</td><td style="vertical-align:top;">:</td><td><div>&lt;class wsgiref.util.FileWrapper at 0x01E29B20&gt;</div></td></tr><tr><td style="font-weight:bold;vertical-align:top;">wsgi_input</td><td style="vertical-align:top;">:</td><td><div>&lt;socket._fileobject object at 0x048221F0&gt;</div></td></tr><tr><td style="font-weight:bold;vertical-align:top;">wsgi_multiprocess</td><td style="vertical-align:top;">:</td><td><div>False</div></td></tr><tr><td style="font-weight:bold;vertical-align:top;">wsgi_multithread</td><td style="vertical-align:top;">:</td><td><div>True</div></td></tr><tr><td style="font-weight:bold;vertical-align:top;">wsgi_run_once</td><td style="vertical-align:top;">:</td><td><div>False</div></td></tr><tr><td style="font-weight:bold;vertical-align:top;">wsgi_url_scheme</td><td style="vertical-align:top;">:</td><td><div>http</div></td></tr><tr><td style="font-weight:bold;vertical-align:top;">wsgi_version</td><td style="vertical-align:top;">:</td><td><div><table><tr><td><div>1</div></td></tr><tr><td><div>0</div></td></tr></table></div></td></tr></table></div></td></tr><tr><td style="font-weight:bold;vertical-align:top;">extension</td><td style="vertical-align:top;">:</td><td><div>html</div></td></tr><tr><td style="font-weight:bold;vertical-align:top;">folder</td><td style="vertical-align:top;">:</td><td><div>F:\\ITWS III\\web2py_win viz\\web2py\\applications\\Weather_Final\\</div></td></tr><tr><td style="font-weight:bold;vertical-align:top;">function</td><td style="vertical-align:top;">:</td><td><div>find</div></td></tr><tr><td style="font-weight:bold;vertical-align:top;">global_settings</td><td style="vertical-align:top;">:</td><td><div><table><tr><td style="font-weight:bold;vertical-align:top;">app_folders</td><td style="vertical-align:top;">:</td><td><div>set([&#x27;F:\\\\ITWS III\\\\web2py_win viz\\\\web2py\\\\applications\\\\welcome\\\\&#x27;, &#x27;F:\\\\ITWS III\\\\web2py_win viz\\\\web2py\\\\applications\\\\Weatherstation\\\\&#x27;, &#x27;F:\\\\ITWS III\\\\web2py_win viz\\\\web2py\\\\applications\\\\admin\\\\&#x27;, &#x27;F:\\\\ITWS III\\\\web2py_win viz\\\\web2py\\\\applications\\\\Weather_Final\\\\&#x27;])</div></td></tr><tr><td style="font-weight:bold;vertical-align:top;">applications_parent</td><td style="vertical-align:top;">:</td><td><div>F:\\ITWS III\\web2py_win viz\\web2py</div></td></tr><tr><td style="font-weight:bold;vertical-align:top;">cmd_args</td><td style="vertical-align:top;">:</td><td><div><table></table></div></td></tr><tr><td style="font-weight:bold;vertical-align:top;">cmd_options</td><td style="vertical-align:top;">:</td><td><div>&lt;Values at 0x1c31530: {&#x27;verbose&#x27;: False, &#x27;ip&#x27;: &#x27;127.0.0.1&#x27;, &#x27;debuglevel&#x27;: 30, &#x27;with_scheduler&#x27;: False, &#x27;ips&#x27;: [&#x27;192.168.1.247&#x27;, &#x27;fe80::2cba:2b19:8f7a:3bfd%7&#x27;, &#x27;fe80::50d1:6179:f3fe:1e93%18&#x27;, &#x27;2001:0:9d38:6abd:2cba:2b19:8f7a:3bfd&#x27;], &#x27;shutdown_timeout&#x27;: 5, &#x27;taskbar&#x27;: False, &#x27;with_coverage&#x27;: False, &#x27;scheduler_groups&#x27;: None, &#x27;port&#x27;: 8000, &#x27;maxthreads&#x27;: None, &#x27;softcron&#x27;: False, &#x27;server_name&#x27;: &#x27;LAPTOP-GNQ9QB8U&#x27;, &#x27;bpython&#x27;: False, &#x27;nogui&#x27;: False, &#x27;pid_filename&#x27;: &#x27;httpserver.pid&#x27;, &#x27;print_errors&#x27;: False, &#x27;extcron&#x27;: False, &#x27;runcron&#x27;: False, &#x27;run_system_tests&#x27;: False, &#x27;test&#x27;: None, &#x27;folder&#x27;: &#x27;F:\\\\ITWS III\\\\web2py_win viz\\\\web2py&#x27;, &#x27;config&#x27;: &#x27;&#x27;, &#x27;minthreads&#x27;: None, &#x27;shell&#x27;: None, &#x27;run&#x27;: &#x27;&#x27;, &#x27;log_filename&#x27;: &#x27;httpserver.log&#x27;, &#x27;profiler_dir&#x27;: None, &#x27;args&#x27;: [&#x27;&#x27;], &#x27;socket_timeout&#x27;: 5, &#x27;ssl_ca_certificate&#x27;: None, &#x27;scheduler&#x27;: None, &#x27;interfaces&#x27;: None, &#x27;ssl_private_key&#x27;: &#x27;&#x27;, &#x27;gae&#x27;: None, &#x27;password&#x27;: &#x27;&lt;ask&gt;&#x27;, &#x27;request_queue_size&#x27;: 5, &#x27;ssl_certificate&#x27;: &#x27;&#x27;, &#x27;cronjob&#x27;: False, &#x27;numthreads&#x27;: None, &#x27;quiet&#x27;: False, &#x27;import_models&#x27;: False, &#x27;timeout&#x27;: 10, &#x27;plain&#x27;: False, &#x27;nobanner&#x27;: False}&gt;</div></td></tr><tr><td style="font-weight:bold;vertical-align:top;">db_sessions</td><td style="vertical-align:top;">:</td><td><div>set([])</div></td></tr><tr><td style="font-weight:bold;vertical-align:top;">debugging</td><td style="vertical-align:top;">:</td><td><div>True</div></td></tr><tr><td style="font-weight:bold;vertical-align:top;">gluon_parent</td><td style="vertical-align:top;">:</td><td><div>F:\\ITWS III\\web2py_win viz\\web2py</div></td></tr><tr><td style="font-weight:bold;vertical-align:top;">is_jython</td><td style="vertical-align:top;">:</td><td><div>False</div></td></tr><tr><td style="font-weight:bold;vertical-align:top;">is_pypy</td><td style="vertical-align:top;">:</td><td><div>False</div></td></tr><tr><td style="font-weight:bold;vertical-align:top;">is_source</td><td style="vertical-align:top;">:</td><td><div>False</div></td></tr><tr><td style="font-weight:bold;vertical-align:top;">local_hosts</td><td style="vertical-align:top;">:</td><td><div><table><tr><td><div>fe80::2cba:2b19:8f7a:3bfd%7</div></td></tr><tr><td><div>::ffff:127.0.0.1</div></td></tr><tr><td><div>::1</div></td></tr><tr><td><div>LAPTOP-GNQ9QB8U</div></td></tr><tr><td><div>192.168.1.247</div></td></tr><tr><td><div>fe80::50d1:6179:f3fe:1e93%18</div></td></tr><tr><td><div>2001:0:9d38:6abd:2cba:2b19:8f7a:3bfd</div></td></tr><tr><td><div>127.0.0.1</div></td></tr></table></div></td></tr><tr><td style="font-weight:bold;vertical-align:top;">web2py_version</td><td style="vertical-align:top;">:</td><td><div>2.12.3-stable+timestamp.2015.08.19.00.18.03</div></td></tr></table></div></td></tr><tr><td style="font-weight:bold;vertical-align:top;">is_https</td><td style="vertical-align:top;">:</td><td><div>False</div></td></tr><tr><td style="font-weight:bold;vertical-align:top;">is_local</td><td style="vertical-align:top;">:</td><td><div>True</div></td></tr><tr><td style="font-weight:bold;vertical-align:top;">is_restful</td><td style="vertical-align:top;">:</td><td><div>False</div></td></tr><tr><td style="font-weight:bold;vertical-align:top;">is_sheduler</td><td style="vertical-align:top;">:</td><td><div>None</div></td></tr><tr><td style="font-weight:bold;vertical-align:top;">is_shell</td><td style="vertical-align:top;">:</td><td><div>None</div></td></tr><tr><td style="font-weight:bold;vertical-align:top;">now</td><td style="vertical-align:top;">:</td><td><div>datetime.datetime(2016, 11, 5, 19, 52, 40, 813000)</div></td></tr><tr><td style="font-weight:bold;vertical-align:top;">raw_args</td><td style="vertical-align:top;">:</td><td><div></div></td></tr><tr><td style="font-weight:bold;vertical-align:top;">raw_extension</td><td style="vertical-align:top;">:</td><td><div>None</div></td></tr><tr><td style="font-weight:bold;vertical-align:top;">url</td><td style="vertical-align:top;">:</td><td><div>/Weather_Final/default/find</div></td></tr><tr><td style="font-weight:bold;vertical-align:top;">utcnow</td><td style="vertical-align:top;">:</td><td><div>datetime.datetime(2016, 11, 5, 14, 22, 40, 813000)</div></td></tr><tr><td style="font-weight:bold;vertical-align:top;">wsgi</td><td style="vertical-align:top;">:</td><td><div>&lt;gluon.main.LazyWSGI object at 0x09407C50&gt;</div></td></tr></table></div>'
tRp58
sS'frames'
p59
(lp60
(dp61
S'file'
p62
S'F:\\ITWS III\\web2py_win viz\\web2py\\gluon\\restricted.py'
p63
sS'dump'
p64
(dp65
S'environment'
p66
S"{'A': <class 'gluon.html.A'>, 'ANY_OF': <class 'gluon.validators.ANY_OF'>, 'ASSIGNJS': <function ASSIGNJS>, 'AppConfig': <function AppConfig>, 'Auth': <class 'gluon.tools.Auth'>, 'B': <class 'gluon.html.B'>, 'BEAUTIFY': <class 'gluon.html.BEAUTIFY'>, 'BODY': <class 'gluon.html.BODY'>, 'BR': <class 'gluon.html.BR'>, 'BUTTON': <class 'gluon.html.BUTTON'>, ...}"
p67
sS'ccode'
p68
S'<code object <module> at 0901A728, file "F:\\ITWS...s\\Weather_Final\\views\\default/find.html", line 1>'
p69
ssS'lnum'
p70
I227
sS'lines'
p71
(dp72
I224
S'            ccode = code'
p73
sI225
S'        else:'
p74
sI226
S'            ccode = compile2(code, layer)'
p75
sI227
S'        exec ccode in environment'
p76
sI228
S'    except HTTP:'
p77
sI229
S'        raise'
p78
sI230
S'    except RestrictedError:'
p79
sI231
S'        # do not encapsulate (obfuscate) the original RestrictedError'
p80
sI222
S'    try:'
p81
sI223
S'        if isinstance(code, types.CodeType):'
p82
ssS'call'
p83
S'(code=\'response.write(\\\'<html>\\\\r\\\\n    <meta name="viewpo... \\\\r\\\\n      </body>\\\\r\\\\n</html>\\\\r\\\\n\\\', escape=False)\', environment={\'A\': <class \'gluon.html.A\'>, \'ANY_OF\': <class \'gluon.validators.ANY_OF\'>, \'ASSIGNJS\': <function ASSIGNJS>, \'AppConfig\': <function AppConfig>, \'Auth\': <class \'gluon.tools.Auth\'>, \'B\': <class \'gluon.html.B\'>, \'BEAUTIFY\': <class \'gluon.html.BEAUTIFY\'>, \'BODY\': <class \'gluon.html.BODY\'>, \'BR\': <class \'gluon.html.BR\'>, \'BUTTON\': <class \'gluon.html.BUTTON\'>, ...}, layer=r\'F:\\ITWS III\\web2py_win viz\\web2py\\applications\\Weather_Final\\views\\default/find.html\')'
p84
sS'func'
p85
S'restricted'
p86
sa(dp87
g62
S'F:\\ITWS III\\web2py_win viz\\web2py\\applications\\Weather_Final\\views\\default\\find.html'
p88
sg64
(dp89
S'color'
p90
S'undefined'
p91
sS'white'
p92
g91
ssg70
I22
sg71
(dp93
I32
S'response.write(h)'
p94
sI13
S"response.write('\\r\\n            var t = ', escape=False)"
p95
sI14
S'response.write(XML(json(t)))'
p96
sI15
S"response.write(';\\r\\nvar p = ', escape=False)"
p97
sI16
S'response.write(XML(json(p)))'
p98
sI17
S"response.write(';\\r\\n        var h = ', escape=False)"
p99
sI18
S'response.write(XML(json(h)))'
p100
sI19
S"response.write(';\\r\\n       var s = ', escape=False)"
p101
sI20
S'response.write(XML(json(s)))'
p102
sI21
S"response.write(';\\r\\n        var data = ', escape=False)"
p103
sI22
S'response.write(XML(json(data)))'
p104
sI23
S'response.write(\';\\r\\n        \\r\\n        \\r\\n    </script>\\r\\n            \\r\\n            \\r\\n            <script type="text/javascript" src="https://www.gstatic.com/charts/loader.js"></script>\\r\\n    <script type="text/javascript">\\r\\n      google.charts.load(\\\'current\\\', {\\\'packages\\\':[\\\'line\\\']});\\r\\n      google.charts.setOnLoadCallback(drawChart);\\r\\n    function drawChart() {\\r\\n\\r\\n      var data = new google.visualization.DataTable();\\r\\n       \\r\\n      data.addColumn(\\\'string\\\', \\\'Date\\\');\\r\\n      data.addColumn(\\\'number\\\', \\\'Temperature(in \\xc2\\xb0C)\\\');\\r\\n      data.addColumn(\\\'number\\\', \\\'Pressure(in 100hPa)\\\');\\r\\n      data.addColumn(\\\'number\\\', \\\'Humidity(in %)\\\');\\r\\n           var cnt=1\\r\\n        for (var i=0;i<4;i++)\\r\\n        {\\r\\n            if (cnt==4){\\r\\n        var t1=t[i];\\r\\n           var p1=p[i];\\r\\n               var h1=h[i];\\r\\n                var d1 = date[i];\\r\\n            }\\r\\n            if (cnt==3){\\r\\n       var t2=t[i];\\r\\n              var  p2=p[i];\\r\\n                  var h2=h[i];\\r\\n                var d2 = date[i];\\r\\n            }\\r\\n        if (cnt==2){\\r\\n       var t3=t[i];\\r\\n              var  p3=p[i];\\r\\n                var h3=h[i];\\r\\n            var d3 = date[i];\\r\\n            }\\r\\n        if (cnt==1){\\r\\n       var t4=t[i];\\r\\n              var  p4=p[i];\\r\\n                var h4=h[i];\\r\\n            var d4 = date[i];\\r\\n            }\\r\\n            cnt=cnt+1\\r\\n    }\\r\\n\\r\\n/*      data.addRows([\\r\\n        [\\\'28/10/16\\\',  t1,p1,h1],\\r\\n        [\\\'29/10/16\\\',  t2,p2,h2],\\r\\n        [\\\'30/10/16\\\',  t3,p3,h3],\\r\\n        [\\\'31/10/16\\\',  t4,p4,h4],\\r\\n      ]);*/\\r\\n//        date1=\', escape=False)'
p105
sI24
S'response.write(date)'
p106
sI25
S'response.write("\\r\\n        data.addRows([\\r\\n        [d1 ,  t1,p1,h1],\\r\\n        [d2 ,  t2,p2,h2],\\r\\n        [d3 ,  t3,p3,h3],\\r\\n        [d4 ,  t4,p4,h4],\\r\\n      ]);\\r\\n\\r\\n      var options = {\\r\\n        chart: {\\r\\n          title: \'Temperature,Pressure & Humidity of \' + s\\r\\n          \\r\\n        },\\r\\n        width: 600,\\r\\n        height: 500,\\r\\n        axes: {\\r\\n          x: {\\r\\n            0: {side: \'top\'}\\r\\n          }\\r\\n        }\\r\\n      };\\r\\n\\r\\n      var chart = new google.charts.Line(document.getElementById(\'line_top_x\'));\\r\\n\\r\\n      chart.draw(data, options);\\r\\n    }\\r\\n  </script>\\r\\n            ", escape=False)'
p107
sI26
S'response.write(s)'
p108
sI27
S"response.write('\\r\\n            ', escape=False)"
p109
sI28
S'response.write(t)'
p110
sI29
S"response.write('\\r\\n            ', escape=False)"
p111
sI30
S'response.write(p)'
p112
sI31
S"response.write('\\r\\n            ', escape=False)"
p113
ssg83
S'()'
p114
sg85
S'<module>'
p115
sasS'pyver'
p116
S'Python 2.7.9: F:\\ITWS III\\web2py_win viz\\web2py\\web2py.exe (prefix: )'
p117
sS'session'
p118
g57
(S's\x1a\x00\x00\x00<div><table></table></div>'
tRp119
sS'etype'
p120
S"<type 'exceptions.NameError'>"
p121
sS'date'
p122
S'Sat Nov 05 19:52:40 2016'
p123
sS'response'
p124
g57
(S's\xbe>\x00\x00<div><table><tr><td style="font-weight:bold;vertical-align:top;">body</td><td style="vertical-align:top;">:</td><td><div>&lt;cStringIO.StringO object at 0x09407300&gt;</div></td></tr><tr><td style="font-weight:bold;vertical-align:top;">cookies</td><td style="vertical-align:top;">:</td><td><div><table><tr><td style="font-weight:bold;vertical-align:top;">session_id_weather_final</td><td style="vertical-align:top;">:</td><td><div>127.0.0.1-1901c18c-56fd-4668-9b6e-ba0efab7cb4a<table><tr><td style="font-weight:bold;vertical-align:top;">comment</td><td style="vertical-align:top;">:</td><td><div></div></td></tr><tr><td style="font-weight:bold;vertical-align:top;">domain</td><td style="vertical-align:top;">:</td><td><div></div></td></tr><tr><td style="font-weight:bold;vertical-align:top;">expires</td><td style="vertical-align:top;">:</td><td><div></div></td></tr><tr><td style="font-weight:bold;vertical-align:top;">httponly</td><td style="vertical-align:top;">:</td><td><div></div></td></tr><tr><td style="font-weight:bold;vertical-align:top;">max-age</td><td style="vertical-align:top;">:</td><td><div></div></td></tr><tr><td style="font-weight:bold;vertical-align:top;">path</td><td style="vertical-align:top;">:</td><td><div>/</div></td></tr><tr><td style="font-weight:bold;vertical-align:top;">secure</td><td style="vertical-align:top;">:</td><td><div></div></td></tr><tr><td style="font-weight:bold;vertical-align:top;">version</td><td style="vertical-align:top;">:</td><td><div></div></td></tr></table></div></td></tr></table></div></td></tr><tr><td style="font-weight:bold;vertical-align:top;">delimiters</td><td style="vertical-align:top;">:</td><td><div><table><tr><td><div>{{</div></td></tr><tr><td><div>}}</div></td></tr></table></div></td></tr><tr><td style="font-weight:bold;vertical-align:top;">files</td><td style="vertical-align:top;">:</td><td><div><table></table></div></td></tr><tr><td style="font-weight:bold;vertical-align:top;">flash</td><td style="vertical-align:top;">:</td><td><div></div></td></tr><tr><td style="font-weight:bold;vertical-align:top;">form_label_separator</td><td style="vertical-align:top;">:</td><td><div></div></td></tr><tr><td style="font-weight:bold;vertical-align:top;">formstyle</td><td style="vertical-align:top;">:</td><td><div>bootstrap3_inline</div></td></tr><tr><td style="font-weight:bold;vertical-align:top;">generic_patterns</td><td style="vertical-align:top;">:</td><td><div><table><tr><td><div>*</div></td></tr></table></div></td></tr><tr><td style="font-weight:bold;vertical-align:top;">google_analytics_id</td><td style="vertical-align:top;">:</td><td><div>None</div></td></tr><tr><td style="font-weight:bold;vertical-align:top;">headers</td><td style="vertical-align:top;">:</td><td><div><table><tr><td style="font-weight:bold;vertical-align:top;">X-Powered-By</td><td style="vertical-align:top;">:</td><td><div>web2py</div></td></tr></table></div></td></tr><tr><td style="font-weight:bold;vertical-align:top;">logo</td><td style="vertical-align:top;">:</td><td><div><a class="navbar-brand" href="http://www.web2py.com/" id="web2py-logo"><b>web<span>2</span>py</b>&trade;&nbsp;</a></div></td></tr><tr><td style="font-weight:bold;vertical-align:top;">menu</td><td style="vertical-align:top;">:</td><td><div><table><tr><td><div><table><tr><td><div>Home</div></td></tr><tr><td><div>False</div></td></tr><tr><td><div>/Weather_Final/default/index</div></td></tr><tr><td><div><table></table></div></td></tr></table></div></td></tr><tr><td><div><table><tr><td><div>My Sites</div></td></tr><tr><td><div>False</div></td></tr><tr><td><div>/admin/default/site</div></td></tr></table></div></td></tr><tr><td><div><table><tr><td><div>This App</div></td></tr><tr><td><div>False</div></td></tr><tr><td><div>#</div></td></tr><tr><td><div><table><tr><td><div><table><tr><td><div>Design</div></td></tr><tr><td><div>False</div></td></tr><tr><td><div>/admin/default/design/Weather_Final</div></td></tr></table></div></td></tr><tr><td><div><li class="divider"></li></div></td></tr><tr><td><div><table><tr><td><div>Controller</div></td></tr><tr><td><div>False</div></td></tr><tr><td><div>/admin/default/edit/Weather_Final/controllers/default.py</div></td></tr></table></div></td></tr><tr><td><div><table><tr><td><div>View</div></td></tr><tr><td><div>False</div></td></tr><tr><td><div>/admin/default/edit/Weather_Final/views/default/find.html</div></td></tr></table></div></td></tr><tr><td><div><table><tr><td><div>DB Model</div></td></tr><tr><td><div>False</div></td></tr><tr><td><div>/admin/default/edit/Weather_Final/models/db.py</div></td></tr></table></div></td></tr><tr><td><div><table><tr><td><div>Menu Model</div></td></tr><tr><td><div>False</div></td></tr><tr><td><div>/admin/default/edit/Weather_Final/models/menu.py</div></td></tr></table></div></td></tr><tr><td><div><table><tr><td><div>Config.ini</div></td></tr><tr><td><div>False</div></td></tr><tr><td><div>/admin/default/edit/Weather_Final/private/appconfig.ini</div></td></tr></table></div></td></tr><tr><td><div><table><tr><td><div>Layout</div></td></tr><tr><td><div>False</div></td></tr><tr><td><div>/admin/default/edit/Weather_Final/views/layout.html</div></td></tr></table></div></td></tr><tr><td><div><table><tr><td><div>Stylesheet</div></td></tr><tr><td><div>False</div></td></tr><tr><td><div>/admin/default/edit/Weather_Final/static/css/web2py-bootstrap3.css</div></td></tr></table></div></td></tr><tr><td><div><table><tr><td><div>Database</div></td></tr><tr><td><div>False</div></td></tr><tr><td><div>/Weather_Final/appadmin/index</div></td></tr></table></div></td></tr><tr><td><div><table><tr><td><div>Errors</div></td></tr><tr><td><div>False</div></td></tr><tr><td><div>/admin/default/errors/Weather_Final</div></td></tr></table></div></td></tr><tr><td><div><table><tr><td><div>About</div></td></tr><tr><td><div>False</div></td></tr><tr><td><div>/admin/default/about/Weather_Final</div></td></tr></table></div></td></tr></table></div></td></tr></table></div></td></tr><tr><td><div><table><tr><td><div>web2py.com</div></td></tr><tr><td><div>False</div></td></tr><tr><td><div>#</div></td></tr><tr><td><div><table><tr><td><div><table><tr><td><div>Download</div></td></tr><tr><td><div>False</div></td></tr><tr><td><div>http://www.web2py.com/examples/default/download</div></td></tr></table></div></td></tr><tr><td><div><table><tr><td><div>Support</div></td></tr><tr><td><div>False</div></td></tr><tr><td><div>http://www.web2py.com/examples/default/support</div></td></tr></table></div></td></tr><tr><td><div><table><tr><td><div>Demo</div></td></tr><tr><td><div>False</div></td></tr><tr><td><div>http://web2py.com/demo_admin</div></td></tr></table></div></td></tr><tr><td><div><table><tr><td><div>Quick Examples</div></td></tr><tr><td><div>False</div></td></tr><tr><td><div>http://web2py.com/examples/default/examples</div></td></tr></table></div></td></tr><tr><td><div><table><tr><td><div>FAQ</div></td></tr><tr><td><div>False</div></td></tr><tr><td><div>http://web2py.com/AlterEgo</div></td></tr></table></div></td></tr><tr><td><div><table><tr><td><div>Videos</div></td></tr><tr><td><div>False</div></td></tr><tr><td><div>http://www.web2py.com/examples/default/videos/</div></td></tr></table></div></td></tr><tr><td><div><table><tr><td><div>Free Applications</div></td></tr><tr><td><div>False</div></td></tr><tr><td><div>http://web2py.com/appliances</div></td></tr></table></div></td></tr><tr><td><div><table><tr><td><div>Plugins</div></td></tr><tr><td><div>False</div></td></tr><tr><td><div>http://web2py.com/plugins</div></td></tr></table></div></td></tr><tr><td><div><table><tr><td><div>Recipes</div></td></tr><tr><td><div>False</div></td></tr><tr><td><div>http://web2pyslices.com/</div></td></tr></table></div></td></tr></table></div></td></tr></table></div></td></tr><tr><td><div><table><tr><td><div>Documentation</div></td></tr><tr><td><div>False</div></td></tr><tr><td><div>#</div></td></tr><tr><td><div><table><tr><td><div><table><tr><td><div>Online book</div></td></tr><tr><td><div>False</div></td></tr><tr><td><div>http://www.web2py.com/book</div></td></tr></table></div></td></tr><tr><td><div><li class="divider"></li></div></td></tr><tr><td><div><table><tr><td><div>Preface</div></td></tr><tr><td><div>False</div></td></tr><tr><td><div>http://www.web2py.com/book/default/chapter/00</div></td></tr></table></div></td></tr><tr><td><div><table><tr><td><div>Introduction</div></td></tr><tr><td><div>False</div></td></tr><tr><td><div>http://www.web2py.com/book/default/chapter/01</div></td></tr></table></div></td></tr><tr><td><div><table><tr><td><div>Python</div></td></tr><tr><td><div>False</div></td></tr><tr><td><div>http://www.web2py.com/book/default/chapter/02</div></td></tr></table></div></td></tr><tr><td><div><table><tr><td><div>Overview</div></td></tr><tr><td><div>False</div></td></tr><tr><td><div>http://www.web2py.com/book/default/chapter/03</div></td></tr></table></div></td></tr><tr><td><div><table><tr><td><div>The Core</div></td></tr><tr><td><div>False</div></td></tr><tr><td><div>http://www.web2py.com/book/default/chapter/04</div></td></tr></table></div></td></tr><tr><td><div><table><tr><td><div>The Views</div></td></tr><tr><td><div>False</div></td></tr><tr><td><div>http://www.web2py.com/book/default/chapter/05</div></td></tr></table></div></td></tr><tr><td><div><table><tr><td><div>Database</div></td></tr><tr><td><div>False</div></td></tr><tr><td><div>http://www.web2py.com/book/default/chapter/06</div></td></tr></table></div></td></tr><tr><td><div><table><tr><td><div>Forms and Validators</div></td></tr><tr><td><div>False</div></td></tr><tr><td><div>http://www.web2py.com/book/default/chapter/07</div></td></tr></table></div></td></tr><tr><td><div><table><tr><td><div>Email and SMS</div></td></tr><tr><td><div>False</div></td></tr><tr><td><div>http://www.web2py.com/book/default/chapter/08</div></td></tr></table></div></td></tr><tr><td><div><table><tr><td><div>Access Control</div></td></tr><tr><td><div>False</div></td></tr><tr><td><div>http://www.web2py.com/book/default/chapter/09</div></td></tr></table></div></td></tr><tr><td><div><table><tr><td><div>Services</div></td></tr><tr><td><div>False</div></td></tr><tr><td><div>http://www.web2py.com/book/default/chapter/10</div></td></tr></table></div></td></tr><tr><td><div><table><tr><td><div>Ajax Recipes</div></td></tr><tr><td><div>False</div></td></tr><tr><td><div>http://www.web2py.com/book/default/chapter/11</div></td></tr></table></div></td></tr><tr><td><div><table><tr><td><div>Components and Plugins</div></td></tr><tr><td><div>False</div></td></tr><tr><td><div>http://www.web2py.com/book/default/chapter/12</div></td></tr></table></div></td></tr><tr><td><div><table><tr><td><div>Deployment Recipes</div></td></tr><tr><td><div>False</div></td></tr><tr><td><div>http://www.web2py.com/book/default/chapter/13</div></td></tr></table></div></td></tr><tr><td><div><table><tr><td><div>Other Recipes</div></td></tr><tr><td><div>False</div></td></tr><tr><td><div>http://www.web2py.com/book/default/chapter/14</div></td></tr></table></div></td></tr><tr><td><div><table><tr><td><div>Helping web2py</div></td></tr><tr><td><div>False</div></td></tr><tr><td><div>http://www.web2py.com/book/default/chapter/15</div></td></tr></table></div></td></tr><tr><td><div><table><tr><td><div>Buy web2py\'s book</div></td></tr><tr><td><div>False</div></td></tr><tr><td><div>http://stores.lulu.com/web2py</div></td></tr></table></div></td></tr></table></div></td></tr></table></div></td></tr><tr><td><div><table><tr><td><div>Community</div></td></tr><tr><td><div>False</div></td></tr><tr><td><div>None</div></td></tr><tr><td><div><table><tr><td><div><table><tr><td><div>Groups</div></td></tr><tr><td><div>False</div></td></tr><tr><td><div>http://www.web2py.com/examples/default/usergroups</div></td></tr></table></div></td></tr><tr><td><div><table><tr><td><div>Twitter</div></td></tr><tr><td><div>False</div></td></tr><tr><td><div>http://twitter.com/web2py</div></td></tr></table></div></td></tr><tr><td><div><table><tr><td><div>Live Chat</div></td></tr><tr><td><div>False</div></td></tr><tr><td><div>http://webchat.freenode.net/?channels=web2py</div></td></tr></table></div></td></tr></table></div></td></tr></table></div></td></tr></table></div></td></tr><tr><td style="font-weight:bold;vertical-align:top;">meta</td><td style="vertical-align:top;">:</td><td><div><table><tr><td style="font-weight:bold;vertical-align:top;">author</td><td style="vertical-align:top;">:</td><td><div>Your Name &lt;you@example.com&gt;</div></td></tr><tr><td style="font-weight:bold;vertical-align:top;">description</td><td style="vertical-align:top;">:</td><td><div>a cool new app</div></td></tr><tr><td style="font-weight:bold;vertical-align:top;">generator</td><td style="vertical-align:top;">:</td><td><div>Web2py Web Framework</div></td></tr><tr><td style="font-weight:bold;vertical-align:top;">keywords</td><td style="vertical-align:top;">:</td><td><div>web2py, python, framework</div></td></tr></table></div></td></tr><tr><td style="font-weight:bold;vertical-align:top;">models_to_run</td><td style="vertical-align:top;">:</td><td><div><table><tr><td><div>^\\w+\\.py$</div></td></tr><tr><td><div>^default/\\w+\\.py$</div></td></tr><tr><td><div>^default/find/\\w+\\.py$</div></td></tr></table></div></td></tr><tr><td style="font-weight:bold;vertical-align:top;">postprocessing</td><td style="vertical-align:top;">:</td><td><div><table></table></div></td></tr><tr><td style="font-weight:bold;vertical-align:top;">session_client</td><td style="vertical-align:top;">:</td><td><div>127.0.0.1</div></td></tr><tr><td style="font-weight:bold;vertical-align:top;">session_cookie_compression_level</td><td style="vertical-align:top;">:</td><td><div>None</div></td></tr><tr><td style="font-weight:bold;vertical-align:top;">session_cookie_expires</td><td style="vertical-align:top;">:</td><td><div>None</div></td></tr><tr><td style="font-weight:bold;vertical-align:top;">session_cookie_key</td><td style="vertical-align:top;">:</td><td><div>None</div></td></tr><tr><td style="font-weight:bold;vertical-align:top;">session_data_name</td><td style="vertical-align:top;">:</td><td><div>session_data_weather_final</div></td></tr><tr><td style="font-weight:bold;vertical-align:top;">session_file</td><td style="vertical-align:top;">:</td><td><div>None</div></td></tr><tr><td style="font-weight:bold;vertical-align:top;">session_filename</td><td style="vertical-align:top;">:</td><td><div>F:\\ITWS III\\web2py_win viz\\web2py\\applications\\Weather_Final\\sessions\\127.0.0.1-1901c18c-56fd-4668-9b6e-ba0efab7cb4a</div></td></tr><tr><td style="font-weight:bold;vertical-align:top;">session_hash</td><td style="vertical-align:top;">:</td><td><div>c0762cbf4baf7f9af97c051e7fcb8083</div></td></tr><tr><td style="font-weight:bold;vertical-align:top;">session_id</td><td style="vertical-align:top;">:</td><td><div>127.0.0.1-1901c18c-56fd-4668-9b6e-ba0efab7cb4a</div></td></tr><tr><td style="font-weight:bold;vertical-align:top;">session_id_name</td><td style="vertical-align:top;">:</td><td><div>session_id_weather_final</div></td></tr><tr><td style="font-weight:bold;vertical-align:top;">session_masterapp</td><td style="vertical-align:top;">:</td><td><div>Weather_Final</div></td></tr><tr><td style="font-weight:bold;vertical-align:top;">session_new</td><td style="vertical-align:top;">:</td><td><div>True</div></td></tr><tr><td style="font-weight:bold;vertical-align:top;">session_storage_type</td><td style="vertical-align:top;">:</td><td><div>file</div></td></tr><tr><td style="font-weight:bold;vertical-align:top;">status</td><td style="vertical-align:top;">:</td><td><div>200</div></td></tr><tr><td style="font-weight:bold;vertical-align:top;">subtitle</td><td style="vertical-align:top;">:</td><td><div></div></td></tr><tr><td style="font-weight:bold;vertical-align:top;">title</td><td style="vertical-align:top;">:</td><td><div>Weather Final</div></td></tr><tr><td style="font-weight:bold;vertical-align:top;">view</td><td style="vertical-align:top;">:</td><td><div>default/find.html</div></td></tr></table></div>'
tRp125
sS'locals'
p126
(dp127
S'Service'
p128
S"<class 'gluon.tools.Service'>"
p129
sS'OBJECT'
p130
S"<class 'gluon.html.OBJECT'>"
p131
sS'SQLDB'
p132
S"<class 'pydal.base.DAL'>"
p133
sg118
S'<Storage {}>'
p134
sS'LINK'
p135
S"<class 'gluon.html.LINK'>"
p136
sS'BR'
p137
S"<class 'gluon.html.BR'>"
p138
sS'local_import'
p139
S'<function <lambda>>'
p140
sS'OPTGROUP'
p141
S"<class 'gluon.html.OPTGROUP'>"
p142
sS'__package__'
p143
S'None'
p144
sS'PRE'
p145
S"<class 'gluon.html.PRE'>"
p146
sS'IS_INT_IN_RANGE'
p147
S"<class 'gluon.validators.IS_INT_IN_RANGE'>"
p148
sS'IS_LOWER'
p149
S"<class 'gluon.validators.IS_LOWER'>"
p150
sS'IS_STRONG'
p151
S"<class 'gluon.validators.IS_STRONG'>"
p152
sS'cache'
p153
S'<gluon.cache.Cache object>'
p154
sS'IS_IN_DB'
p155
S"<class 'gluon.validators.IS_IN_DB'>"
p156
sS'TAG'
p157
S'<gluon.html.__TAG__ object>'
p158
sS'SQLField'
p159
S"<class 'pydal.objects.Field'>"
p160
sS'mail'
p161
S'<gluon.tools.Mail object>'
p162
sS'BODY'
p163
S"<class 'gluon.html.BODY'>"
p164
sS'IS_DATE_IN_RANGE'
p165
S"<class 'gluon.validators.IS_DATE_IN_RANGE'>"
p166
sS'IFRAME'
p167
S"<class 'gluon.html.IFRAME'>"
p168
sS'URL'
p169
S'<function URL>'
p170
sS'__file__'
p171
S"r'F:\\ITWS III\\web2py_win viz\\web2py\\applications\\Weather_Final\\views\\default/find.html'"
p172
sS'db'
p173
S'<DAL uri="sqlite://storage.sqlite">'
p174
sS'auth'
p175
S'<gluon.tools.Auth object>'
p176
sS'P'
S"<class 'gluon.html.P'>"
p177
sS'TFOOT'
p178
S"<class 'gluon.html.TFOOT'>"
p179
sS'XHTML'
p180
S"<class 'gluon.html.XHTML'>"
p181
sS'ON'
p182
S'True'
p183
sS'OL'
p184
S"<class 'gluon.html.OL'>"
p185
sS'TEXTAREA'
p186
S"<class 'gluon.html.TEXTAREA'>"
p187
sS'MENU'
p188
S"<class 'gluon.html.MENU'>"
p189
sS'p'
S'[3.0, 4.0, 3.0, 3.4]'
p190
sS't'
S'[41.0, 43.0, 45.0, 38.0]'
p191
sS'h'
S'[77.0, 74.0, 73.0, 69.0]'
p192
sS'IS_IMAGE'
p193
S"<class 'gluon.validators.IS_IMAGE'>"
p194
sS'EM'
p195
S"<class 'gluon.html.EM'>"
p196
sS'CODE'
p197
S"<class 'gluon.html.CODE'>"
p198
sS'HTTP'
p199
S"<class 'gluon.http.HTTP'>"
p200
sS'HR'
p201
S"<class 'gluon.html.HR'>"
p202
sS'IS_DATETIME'
p203
S"<class 'gluon.validators.IS_DATETIME'>"
p204
sS'STYLE'
p205
S"<class 'gluon.html.STYLE'>"
p206
sS'LABEL'
p207
S"<class 'gluon.html.LABEL'>"
p208
sS'CLEANUP'
p209
S"<class 'gluon.validators.CLEANUP'>"
p210
sS'plugins'
p211
S'<gluon.tools.PluginManager object>'
p212
sS'SELECT'
p213
S"<class 'gluon.html.SELECT'>"
p214
sS'CENTER'
p215
S"<class 'gluon.html.CENTER'>"
p216
sS'Auth'
p217
S"<class 'gluon.tools.Auth'>"
p218
sS'DEVELOPMENT_MENU'
p219
g183
sS'__builtins__'
p220
S"{'ArithmeticError': <type 'exceptions.ArithmeticError'>, 'AssertionError': <type 'exceptions.AssertionError'>, 'AttributeError': <type 'exceptions.AttributeError'>, 'BaseException': <type 'exceptions.BaseException'>, 'BufferError': <type 'exceptions.BufferError'>, 'BytesWarning': <type 'exceptions.BytesWarning'>, 'DeprecationWarning': <type 'exceptions.DeprecationWarning'>, 'EOFError': <type 'exceptions.EOFError'>, 'Ellipsis': Ellipsis, 'EnvironmentError': <type 'exceptions.EnvironmentError'>, ...}"
p221
sS'HTML'
p222
S"<class 'gluon.html.HTML'>"
p223
sS'SQLFORM'
p224
S"<class 'gluon.sqlhtml.SQLFORM'>"
p225
sS'LOAD'
p226
S'<function LOAD>'
p227
sS'redirect'
p228
S'<function redirect>'
p229
sS'FIELDSET'
p230
S"<class 'gluon.html.FIELDSET'>"
p231
sS'IS_EQUAL_TO'
p232
S"<class 'gluon.validators.IS_EQUAL_TO'>"
p233
sS'embed64'
p234
S'<function embed64>'
p235
sS'IS_LIST_OF'
p236
S"<class 'gluon.validators.IS_LIST_OF'>"
p237
sS'INPUT'
p238
S"<class 'gluon.html.INPUT'>"
p239
sS'EMBED'
p240
S"<class 'gluon.html.EMBED'>"
p241
sS'_'
S'<function _>'
p242
sS'myconf'
p243
S"{'forms': {'formstyle': 'bootstrap3_inline', 'se...'you@gmail.com', 'server': 'smtp.gmail.com:587'}}"
p244
sS'H2'
p245
S"<class 'gluon.html.H2'>"
p246
sS'H3'
p247
S"<class 'gluon.html.H3'>"
p248
sS'AppConfig'
p249
S'<function AppConfig>'
p250
sS'H1'
p251
S"<class 'gluon.html.H1'>"
p252
sS'H6'
p253
S"<class 'gluon.html.H6'>"
p254
sS'H4'
p255
S"<class 'gluon.html.H4'>"
p256
sS'H5'
p257
S"<class 'gluon.html.H5'>"
p258
sS'UL'
p259
S"<class 'gluon.html.UL'>"
p260
sS's'
S"'Chennai'"
p261
sS'IS_UPPER'
p262
S"<class 'gluon.validators.IS_UPPER'>"
p263
sS'xmlescape'
p264
S'<function xmlescape>'
p265
sS'IS_TIME'
p266
S"<class 'gluon.validators.IS_TIME'>"
p267
sS'OPTION'
p268
S"<class 'gluon.html.OPTION'>"
p269
sS'TITLE'
p270
S"<class 'gluon.html.TITLE'>"
p271
sS'CRYPT'
p272
S"<class 'gluon.validators.CRYPT'>"
p273
sS'IS_EMPTY_OR'
p274
S"<class 'gluon.validators.IS_EMPTY_OR'>"
p275
sS'MARKMIN'
p276
S"<class 'gluon.html.MARKMIN'>"
p277
sS'__name__'
p278
S"'__restricted__'"
p279
sS'STRONG'
p280
S"<class 'gluon.html.STRONG'>"
p281
sS'COL'
p282
S"<class 'gluon.html.COL'>"
p283
sS'service'
p284
S'<gluon.tools.Service object>'
p285
sS'SCRIPT'
p286
S"<class 'gluon.html.SCRIPT'>"
p287
sS'json'
p288
S'<function json>'
p289
sS'TABLE'
p290
S"<class 'gluon.html.TABLE'>"
p291
sS'IS_IPV4'
p292
S"<class 'gluon.validators.IS_IPV4'>"
p293
sS'IS_LENGTH'
p294
S"<class 'gluon.validators.IS_LENGTH'>"
p295
sS'IS_IPV6'
p296
S"<class 'gluon.validators.IS_IPV6'>"
p297
sS'XML'
p298
S"<class 'gluon.html.XML'>"
p299
sS'B'
S"<class 'gluon.html.B'>"
p300
sS'IMG'
p301
S"<class 'gluon.html.IMG'>"
p302
sS'SQLTABLE'
p303
S"<class 'gluon.sqlhtml.SQLTABLE'>"
p304
sS'IS_MATCH'
p305
S"<class 'gluon.validators.IS_MATCH'>"
p306
sS'IS_ALPHANUMERIC'
p307
S"<class 'gluon.validators.IS_ALPHANUMERIC'>"
p308
sS'SPAN'
p309
S"<class 'gluon.html.SPAN'>"
p310
sS'IS_JSON'
p311
S"<class 'gluon.validators.IS_JSON'>"
p312
sS'IS_IPADDRESS'
p313
S"<class 'gluon.validators.IS_IPADDRESS'>"
p314
sS'IS_SLUG'
p315
S"<class 'gluon.validators.IS_SLUG'>"
p316
sS'BEAUTIFY'
p317
S"<class 'gluon.html.BEAUTIFY'>"
p318
sS'META'
p319
S"<class 'gluon.html.META'>"
p320
sS'BUTTON'
p321
S"<class 'gluon.html.BUTTON'>"
p322
sS'IS_DATE'
p323
S"<class 'gluon.validators.IS_DATE'>"
p324
sS'IS_EMAIL'
p325
S"<class 'gluon.validators.IS_EMAIL'>"
p326
sS'IS_NOT_EMPTY'
p327
S"<class 'gluon.validators.IS_NOT_EMPTY'>"
p328
sS'IS_FLOAT_IN_RANGE'
p329
S"<class 'gluon.validators.IS_FLOAT_IN_RANGE'>"
p330
sS'TBODY'
p331
S"<class 'gluon.html.TBODY'>"
p332
sS'CAT'
p333
S"<class 'gluon.html.CAT'>"
p334
sS'Field'
p335
S"<class 'pydal.objects.Field'>"
p336
sS'IS_LIST_OF_EMAILS'
p337
S"<class 'gluon.validators.IS_LIST_OF_EMAILS'>"
p338
sS'DIV'
p339
S"<class 'gluon.html.DIV'>"
p340
sS'LEGEND'
p341
S"<class 'gluon.html.LEGEND'>"
p342
sS'COLGROUP'
p343
S"<class 'gluon.html.COLGROUP'>"
p344
sS'DAL'
p345
S"<class 'pydal.base.DAL'>"
p346
sS'ASSIGNJS'
p347
S'<function ASSIGNJS>'
p348
sS'TR'
p349
S"<class 'gluon.html.TR'>"
p350
sS'LI'
p351
S"<class 'gluon.html.LI'>"
p352
sS'read'
p353
S'<Rows (10)>'
p354
sS'TH'
p355
S"<class 'gluon.html.TH'>"
p356
sS'TD'
p357
S"<class 'gluon.html.TD'>"
p358
sS'PluginManager'
p359
S"<class 'gluon.tools.PluginManager'>"
p360
sS'IS_URL'
p361
S"<class 'gluon.validators.IS_URL'>"
p362
sS'A'
S"<class 'gluon.html.A'>"
p363
sS'HEAD'
p364
S"<class 'gluon.html.HEAD'>"
p365
sS'IS_DATETIME_IN_RANGE'
p366
S"<class 'gluon.validators.IS_DATETIME_IN_RANGE'>"
p367
sS'FORM'
p368
S"<class 'gluon.html.FORM'>"
p369
sS'I'
S"<class 'gluon.html.I'>"
p370
sS'IS_NOT_IN_DB'
p371
S"<class 'gluon.validators.IS_NOT_IN_DB'>"
p372
sg122
S"['5-11-2016', '6-11-2016', '7-11-2016', '8-11-2016']"
p373
sg124
S"<Storage {'body': <cStringIO.StringO object at 0...da> at 0x044D5770>, 'view': 'default/find.html'}>"
p374
sS'THEAD'
p375
S"<class 'gluon.html.THEAD'>"
p376
sS'ANY_OF'
p377
S"<class 'gluon.validators.ANY_OF'>"
p378
sS'IS_NULL_OR'
p379
S"<class 'gluon.validators.IS_EMPTY_OR'>"
p380
sS'i'
S"<Row {'high_temparature': '35.8', 'low_temparatu...'pressure': '2.3', 'place': 'Mysuru', 'id': 11L}>"
p381
sg56
S"<Storage {'_vars': <Storage {'place': 'Chennai'}...win viz\\\\web2py\\\\applications\\\\Weather_Final\\\\'}>"
p382
sS'IS_EXPR'
p383
S"<class 'gluon.validators.IS_EXPR'>"
p384
sS'T'
S'<gluon.languages.translator object>'
p385
sS'IS_IN_SET'
p386
S"<class 'gluon.validators.IS_IN_SET'>"
p387
sS'IS_UPLOAD_FILENAME'
p388
S"<class 'gluon.validators.IS_UPLOAD_FILENAME'>"
p389
sS'TT'
p390
S"<class 'gluon.html.TT'>"
p391
sS'IS_DECIMAL_IN_RANGE'
p392
S"<class 'gluon.validators.IS_DECIMAL_IN_RANGE'>"
p393
sssS'traceback'
p394
S'Traceback (most recent call last):\n  File "F:\\ITWS III\\web2py_win viz\\web2py\\gluon\\restricted.py", line 227, in restricted\n    exec ccode in environment\n  File "F:\\ITWS III\\web2py_win viz\\web2py\\applications\\Weather_Final\\views\\default/find.html", line 22, in <module>\n    color:white;\nNameError: name \'data\' is not defined\n'
p395
s.